; Listing generated by Microsoft (R) Optimizing Compiler Version 19.00.24213.1 

	TITLE	D:\Stanley\Desktop\quickman_v110\source\quickman.c
	.686P
	.XMM
	include listing.inc
	.model	flat

INCLUDELIB LIBCMTD
INCLUDELIB OLDNAMES

PUBLIC	_num_threads
PUBLIC	_file_strs
PUBLIC	_main_man_calc_struct
PUBLIC	_save_man_calc_struct
_BSS	SEGMENT
$SG42031 DB	01H DUP (?)
	ALIGN	4

?dragging@?1??MainWndProc@@9@9 DD 01H DUP (?)		; `MainWndProc'::`2'::dragging
?have_box@?1??MainWndProc@@9@9 DD 01H DUP (?)		; `MainWndProc'::`2'::have_box
?zoom_mode_pending@?1??MainWndProc@@9@9 DD 01H DUP (?)	; `MainWndProc'::`2'::zoom_mode_pending
?prev_sizing@?1??MainWndProc@@9@9 DD 01H DUP (?)	; `MainWndProc'::`2'::prev_sizing
?prev_max_restore@?1??MainWndProc@@9@9 DD 01H DUP (?)	; `MainWndProc'::`2'::prev_max_restore
?ictr@?1??get_image_info@@9@9 DQ 01H DUP (?)		; `get_image_info'::`2'::ictr
?guessed_pct@?1??get_image_info@@9@9 DQ 01H DUP (?)	; `get_image_info'::`2'::guessed_pct
?miters_s@?1??get_image_info@@9@9 DQ 01H DUP (?)	; `get_image_info'::`2'::miters_s
?avg_iters@?1??get_image_info@@9@9 DQ 01H DUP (?)	; `get_image_info'::`2'::avg_iters
_cur_pan_xstep DQ 01H DUP (?)
_cur_pan_ystep DQ 01H DUP (?)
_pan_xstep_accum DQ 01H DUP (?)
_pan_ystep_accum DQ 01H DUP (?)
?key_lock@?1??get_pan_steps@@9@9 DD 01H DUP (?)		; `get_pan_steps'::`2'::key_lock
_num_threads_ind DD 01H DUP (?)
?stopped_counter@?1??get_pan_steps@@9@9 DD 01H DUP (?)	; `get_pan_steps'::`2'::stopped_counter
?stopped@?1??get_pan_steps@@9@9 DD 01H DUP (?)		; `get_pan_steps'::`2'::stopped
_precision_loss DD 01H DUP (?)
	ALIGN	8

_iter_time DQ	01H DUP (?)
_calc_interval_time DQ 01H DUP (?)
_calc_total_time DQ 01H DUP (?)
_interval_time DQ 01H DUP (?)
_total_time DQ	01H DUP (?)
_total_frames DD 01H DUP (?)
_interval_frames DD 01H DUP (?)
_file_tot_time DQ 01H DUP (?)
_all_recalculated DD 01H DUP (?)
_sse_support DD	01H DUP (?)
_do_rtzoom DD	01H DUP (?)
_prev_do_rtzoom DD 01H DUP (?)
_hwnd_dialog DD	01H DUP (?)
_hinstance DD	01H DUP (?)
_hscreen_dc DD	01H DUP (?)
_status	DD	01H DUP (?)
_main_man_calc_struct DB 029310H DUP (?)
_save_man_calc_struct DB 029310H DUP (?)
_log_entries DD	01H DUP (?)
_log_pos DD	01H DUP (?)
_log_count DD	01H DUP (?)
?prev_width@?1??create_bitmap@@9@9 DD 01H DUP (?)	; `create_bitmap'::`2'::prev_width
?prev_height@?1??create_bitmap@@9@9 DD 01H DUP (?)	; `create_bitmap'::`2'::prev_height
$SG40559 DB	01H DUP (?)
	ALIGN	4

$SG41606 DB	01H DUP (?)
	ALIGN	4

$SG40584 DB	01H DUP (?)
	ALIGN	4

$SG41686 DB	01H DUP (?)
	ALIGN	4

$SG41688 DB	01H DUP (?)
	ALIGN	4

?fileNo@?1??queue_point_c@@9@9 DD 01H DUP (?)		; `queue_point_c'::`2'::fileNo
?currLines@?1??queue_point_c@@9@9 DD 01H DUP (?)	; `queue_point_c'::`2'::currLines
?adj_iters_prev@?1??man_dialog_proc@@9@9 DD 01H DUP (?)	; `man_dialog_proc'::`2'::adj_iters_prev
?ignore_next_change@?1??man_dialog_proc@@9@9 DD 01H DUP (?) ; `man_dialog_proc'::`2'::ignore_next_change
?new_file_entered@?1??man_dialog_proc@@9@9 DD 01H DUP (?) ; `man_dialog_proc'::`2'::new_file_entered
?new_file_selected@?1??man_dialog_proc@@9@9 DD 01H DUP (?) ; `man_dialog_proc'::`2'::new_file_selected
_BSS	ENDS
CONST	SEGMENT
_help_text DB	'For complete documentation, please go to the QuickMAN', 0aH
	DB	'project webpage and click on the Documentation tab.', 0aH, 0aH
	DB	'http://quickman.sourceforge.net', 0aH, 0aH, 'Operation Summar'
	DB	'y:', 0aH, 0aH, 'Mouse buttons: zoom in/out; zoom rectangle in'
	DB	' magnifier mode', 0aH, 0aH, 'Mouse wheel: increase/decrease M'
	DB	'ax Iters', 0aH, 0aH, 'Z: switch between realtime zooming and '
	DB	'magnifier modes', 0aH, 0aH, 'Arrow keys or A, S, D, W: move a'
	DB	'round the image (pan)', 0aH, 0aH, 'Space (with mouse): drag t'
	DB	'he image', 0aH, 0aH, 'Shift (with/without arrow keys): start/'
	DB	'stop automatic panning', 0aH, 0aH, 'Ctrl (during panning): in'
	DB	'crease panning speed', 0aH, 0aH, 'F or Fullscreen button: swi'
	DB	'tch between windowed and fullscreen', 0aH, 0aH, 'Esc: exit fu'
	DB	'llscreen mode', 0aH, 0aH, 'C: show/hide the control window', 0aH
	DB	0aH, 'N or Next button: go to the next logfile image', 0aH, 0aH
	DB	'P or Previous button: go to the previous logfile image', 0aH, 0aH
	DB	'H or Home button: go to the home image', 0aH, 0aH, 'L: lock t'
	DB	'he current palette (ignore logfile palettes)', 0aH, 0aH, 'I: '
	DB	'invert the current palette', 0aH, 0aH, 'F1: show this message'
	DB	00H
	ORG $+3
_wave_ystart DD	03H
	DD	01H
	DD	03H
	DD	01H
	DD	00H
	DD	01H
	DD	00H
_wave_xstart DD	00H
	DD	02H
	DD	02H
	DD	00H
	DD	01H
	DD	01H
	DD	00H
_wave_inc DD	04H
	DD	04H
	DD	04H
	DD	04H
	DD	02H
	DD	02H
	DD	02H
_wave_xoffs DD	00H
	DD	00H
	DD	00H
	DD	00H
	DD	0fffffffeH
	DD	02H
	DD	0fffffffeH
	DD	02H
	DD	00H
	DD	0fffffffeH
	DD	02H
	DD	00H
	DD	00H
	DD	0fffffffeH
	DD	02H
	DD	00H
	DD	0ffffffffH
	DD	01H
	DD	0ffffffffH
	DD	01H
	DD	00H
	DD	0ffffffffH
	DD	01H
	DD	00H
	DD	00H
	DD	0ffffffffH
	DD	01H
	DD	00H
_wave_yoffs DD	00H
	DD	00H
	DD	00H
	DD	00H
	DD	0fffffffeH
	DD	0fffffffeH
	DD	02H
	DD	02H
	DD	0fffffffeH
	DD	00H
	DD	00H
	DD	02H
	DD	0fffffffeH
	DD	00H
	DD	00H
	DD	02H
	DD	0ffffffffH
	DD	0ffffffffH
	DD	01H
	DD	01H
	DD	0ffffffffH
	DD	00H
	DD	00H
	DD	01H
	DD	0ffffffffH
	DD	00H
	DD	00H
	DD	01H
CONST	ENDS
_DATA	SEGMENT
$SG42034 DB	'Logged', 00H
	ORG $+1
?prev_mouse_x@?1??MainWndProc@@9@9 DD 0ffffffffH	; `MainWndProc'::`2'::prev_mouse_x
?allow_mode_change@?1??MainWndProc@@9@9 DD 01H		; `MainWndProc'::`2'::allow_mode_change
?prev_nav_mode@?1??MainWndProc@@9@9 DD 02H		; `MainWndProc'::`2'::prev_nav_mode
?classname@?1??WinMain@@9@9 DD FLAT:$SG42311		; `WinMain'::`2'::classname
$SG41258 DB	'%-4.4gM (%-.2f GFlops)', 00H
	ORG $+1
$SG41259 DB	'Real', 09H, '%-16.16lf', 0dH, 0aH, 'Imag', 09H, '%-16.16'
	DB	'lf', 0dH, 0aH, 'Mag', 09H, '%-16lf', 0dH, 0aH, 0dH, 0aH, 'Siz'
	DB	'e', 09H, '%u x %u', 0dH, 0aH, 'Time', 09H, '%-3.3fs', 0dH, 0aH
	DB	'Iters/s', 09H, '%s', 0dH, 0aH, 0dH, 0aH, 'Avg iters/pixel', 09H
	DB	'%-.1lf', 0dH, 0aH, 'Points guessed', 09H, '%-.1lf%%', 0dH, 0aH
	DB	'Total iters', 09H, '%-.0lf', 0dH, 0aH, 00H
	ORG $+2
$SG41260 DB	0dH, 0aH, 'Thread load %%', 09H, 'Cur    Total', 0dH, 0aH
	DB	00H
$SG41261 DB	'Thread %d', 09H, '%#3.3g   %#3.3g', 0dH, 0aH, 00H
$SG41278 DB	'%c Fps %3.0f/%-3.0f', 00H
$SG41264 DB	'Efficiency %%', 09H, '%#3.3g   %#3.3g', 0dH, 0aH, 0dH, 0aH
	DB	'Total calc time', 09H, '%-.3lfs', 0dH, 0aH, 0dH, 0aH, '(C) 20'
	DB	'06-2008 Paul Gentieu', 00H
	ORG $+1
$SG41279 DB	'Iter %2.0f%%', 00H
	ORG $+3
$SG42311 DB	'ManWin', 00H
	ORG $+1
$SG42313 DB	'QuickMAN 1.10  |  F1: Help', 00H
	ORG $+1
_precision_strs DD FLAT:$SG40267
	DD	FLAT:$SG40268
	DD	FLAT:$SG40269
	DD	FLAT:$SG40270
$SG42314 DB	0aH, 'Did you extract all the files from the QuickMAN .zi'
	DB	'p archive?', 00H
	ORG $+1
$SG40267 DB	'Auto', 00H
	ORG $+3
$SG40268 DB	'Single', 00H
	ORG $+1
$SG40269 DB	'Double', 00H
	ORG $+1
$SG40270 DB	'Extended', 00H
	ORG $+3
_alg_strs DD	FLAT:$SG40272
	DD	FLAT:$SG40273
	DD	FLAT:$SG40274
	DD	FLAT:$SG40275
	DD	FLAT:$SG40276
	DD	FLAT:$SG40277
$SG40272 DB	'Fast, AMD', 00H
	ORG $+2
$SG40273 DB	'Exact, AMD', 00H
	ORG $+1
$SG40274 DB	'Fast, Intel', 00H
$SG40275 DB	'Exact, Intel', 00H
	ORG $+3
$SG40276 DB	'Fast, C', 00H
$SG40277 DB	'Exact, C', 00H
	ORG $+3
_palette_strs DD FLAT:$SG40279
	DD	FLAT:$SG40280
	DD	FLAT:$SG40281
	DD	FLAT:$SG40282
	DD	FLAT:$SG40283
	DD	FLAT:$SG40284
	DD	FLAT:$SG40285
	DD	FLAT:$SG40286
	DD	FLAT:$SG40287
	DD	FLAT:$SG40288
	DD	FLAT:$SG40289
	DD	FLAT:$SG40290
	DD	FLAT:$SG40291
	DD	FLAT:$SG40292
$SG40279 DB	'Monochrome', 00H
	ORG $+1
$SG40280 DB	'Striped', 00H
$SG40281 DB	'Loud', 00H
	ORG $+3
$SG40282 DB	'Muted', 00H
	ORG $+2
$SG40283 DB	'Purple', 00H
	ORG $+1
$SG40284 DB	'Earthy', 00H
	ORG $+1
$SG40285 DB	'Smoky', 00H
	ORG $+2
$SG40286 DB	'Acid', 00H
	ORG $+3
$SG40287 DB	'Flaming', 00H
$SG40288 DB	'Metallic', 00H
	ORG $+3
$SG40289 DB	'Angry', 00H
	ORG $+2
$SG40290 DB	'Dreamy', 00H
	ORG $+1
$SG40291 DB	'Flaming+', 00H
	ORG $+3
$SG40292 DB	'Plantlike', 00H
	ORG $+2
_rendering_strs DD FLAT:$SG40294
	DD	FLAT:$SG40295
$SG40294 DB	'Standard', 00H
	ORG $+3
$SG40295 DB	'Normalized', 00H
	ORG $+1
_num_threads_strs DD FLAT:$SG40297
	DD	FLAT:$SG40298
	DD	FLAT:$SG40299
	DD	FLAT:$SG40300
	DD	FLAT:$SG40301
	DD	FLAT:$SG40302
	DD	FLAT:$SG40303
	DD	FLAT:$SG40304
	DD	FLAT:$SG40305
$SG40297 DB	'1', 00H
	ORG $+2
$SG40298 DB	'2', 00H
	ORG $+2
$SG40299 DB	'4', 00H
	ORG $+2
$SG40300 DB	'8', 00H
	ORG $+2
$SG40301 DB	'16', 00H
	ORG $+1
$SG40302 DB	'32', 00H
	ORG $+1
$SG40303 DB	'64', 00H
	ORG $+1
$SG40304 DB	'128', 00H
$SG40305 DB	'256', 00H
_num_threads DD	01H
$SG40321 DB	'auto_panzoom.log', 00H
	ORG $+3
_logfile DB	'quickman.log', 00H
	ORG $+243
_savefile DB	'image1', 00H
	ORG $+249
_file_strs DD	FLAT:_logfile
	DD	FLAT:$SG40321
_nav_mode DD	02H
$SG40380 DB	'Pan', 00H
_rtzoom_mag_steps DQ 03ff0028f5c28f5c3r		; 1.00063
	DQ	03ff0051eb851eb85r		; 1.00125
	DQ	03ff00a3d70a3d70ar		; 1.0025
	DQ	03ff0147ae147ae14r		; 1.005
	DQ	03ff028f5c28f5c29r		; 1.01
	DQ	03ff03d70a3d70a3dr		; 1.015
	DQ	03ff051eb851eb852r		; 1.02
	DQ	03ff0666666666666r		; 1.025
	DQ	03ff07ae147ae147br		; 1.03
	DQ	03ff0a3d70a3d70a4r		; 1.04
	DQ	03ff0cccccccccccdr		; 1.05
	DQ	03ff0f5c28f5c28f6r		; 1.06
	DQ	03ff11eb851eb851fr		; 1.07
	DQ	03ff147ae147ae148r		; 1.08
	DQ	03ff170a3d70a3d71r		; 1.09
	DQ	03ff199999999999ar		; 1.1
	DQ	03ff1c28f5c28f5c3r		; 1.11
	DQ	03ff1eb851eb851ecr		; 1.12
	DQ	03ff23d70a3d70a3dr		; 1.14
	DQ	03ff2b851eb851eb8r		; 1.17
	DQ	03ff3333333333333r		; 1.2
_pan_step_scales DQ 03f547ae147ae147br		; 0.00125
	DQ	03f647ae147ae147br		; 0.0025
	DQ	03f747ae147ae147br		; 0.005
	DQ	03f847ae147ae147br		; 0.01
	DQ	03f947ae147ae147br		; 0.02
	DQ	03fa47ae147ae147br		; 0.04
	DQ	03fb47ae147ae147br		; 0.08
	DQ	03fc999999999999ar		; 0.2
	DQ	03fd999999999999ar		; 0.4
	DQ	03fe3333333333333r		; 0.6
	DQ	03fe999999999999ar		; 0.8
	DQ	03ff0000000000000r		; 1
	DQ	03ff3333333333333r		; 1.2
	DQ	03ff6666666666666r		; 1.4
	DQ	03ff999999999999ar		; 1.6
	DQ	03ffccccccccccccdr		; 1.8
	DQ	04000000000000000r		; 2
	DQ	0400199999999999ar		; 2.2
	DQ	04003333333333333r		; 2.4
	DQ	04004cccccccccccdr		; 2.6
	DQ	04006666666666666r		; 2.8
?pan_time@?1??do_panning@@9@9 DQ 0bff0000000000000r ; -1 ; `do_panning'::`2'::pan_time
_cfg_settings DD FLAT:$SG40379
	DD	0aH
	DD	0aH
	DD	00H
	DD	014H
	DD	FLAT:$SG40380
	DD	00H
	DD	00H
	DD	00H
	DD	0ffffH
	DD	FLAT:$SG40381
	DD	0aH
	DD	0aH
	DD	00H
	DD	014H
	DD	FLAT:$SG40382
	DD	00H
	DD	00H
	DD	00H
	DD	0ffffH
	DD	FLAT:$SG40383
	DD	02bcH
	DD	02bcH
	DD	00H
	DD	0ffffH
	DD	FLAT:$SG40384
	DD	02bcH
	DD	02bcH
	DD	00H
	DD	0ffffH
	DD	FLAT:$SG40385
	DD	00H
	DD	00H
	DD	00H
	DD	0ffffffH
	DD	FLAT:$SG40386
	DD	00H
	DD	00H
	DD	00H
	DD	0ffffffH
	DD	FLAT:$SG40387
	DD	01H
	DD	01H
	DD	00H
	DD	0ffffH
	DD	FLAT:$SG40388
	DD	0234471H
	DD	0234471H
	DD	00H
	DD	0ffffffH
	DD	FLAT:$SG40389
	DD	010H
	DD	010H
	DD	01H
	DD	0ffffffH
	DD	FLAT:$SG40390
	DD	096H
	DD	096H
	DD	01H
	DD	02710H
	DD	FLAT:$SG40391
	DD	012cH
	DD	012cH
	DD	01H
	DD	02710H
$SG40379 DB	'panrate', 00H
$SG40381 DB	'zoomrate', 00H
	ORG $+3
$SG40382 DB	'Zoom', 00H
	ORG $+3
$SG40383 DB	'Xsize', 00H
	ORG $+2
$SG40384 DB	'Ysize', 00H
	ORG $+2
$SG40385 DB	'Maxiters_color', 00H
	ORG $+1
$SG40386 DB	'Pal_xor', 00H
$SG40387 DB	'options', 00H
$SG40388 DB	'spt', 00H
$SG40389 DB	'bst', 00H
$SG40390 DB	'pfcmin', 00H
	ORG $+1
$SG40391 DB	'pfcmax', 00H
	ORG $+1
$SG41455 DB	'AuthenticAMD', 00H
	ORG $+3
$SG41460 DB	'Warning', 00H
$SG41461 DB	'Your (obsolete) CPU does not support SSE2 instructions.', 0dH
	DB	0aH, 'Performance will be suboptimal.', 00H
	ORG $+3
$SG40493 DB	'real', 00H
	ORG $+3
$SG40522 DB	'rb', 00H
	ORG $+1
$SG40523 DB	'rt', 00H
	ORG $+1
$SG41548 DB	'Error allocating storage arrays.', 00H
	ORG $+3
$SG40525 DB	'Could not open ''%s'' for read.%s', 00H
$SG40526 DB	'Warning', 00H
$SG40575 DB	'at', 00H
	ORG $+1
$SG40576 DB	'Could not open ''%s'' for write.', 00H
	ORG $+1
$SG40579 DB	'%d', 00H
	ORG $+1
$SG41604 DB	'bmp', 00H
$SG40580 DB	'"%s"', 00H
	ORG $+3
$SG40582 DB	0aH, 'pal_xor 0x%06X', 00H
$SG41610 DB	'Unrecognized file format.', 00H
	ORG $+2
$SG40583 DB	0aH, 'Real     %-16.16lf', 0aH, 'Imag     %-16.16lf', 0aH
	DB	'Mag      %-16lf', 0aH, 'Iters    %d', 0aH, 'Palette  %s', 0aH
	DB	00H
$SG41609 DB	'Unsupported file format. Please supply an uncompressed 2'
	DB	'4-bit bitmap.', 00H
	ORG $+2
$SG40608 DB	'quickman.cfg', 00H
	ORG $+3
$SG40626 DB	'*.pal', 00H
	ORG $+2
$SG40627 DB	'*.bmp', 00H
	ORG $+2
$SG40628 DB	'*.log', 00H
	ORG $+2
?vkeys@?1??get_keys_pressed@@9@9 DW 025H		; `get_keys_pressed'::`2'::vkeys
	DW	041H
	DW	027H
	DW	044H
	DW	026H
	DW	057H
	DW	028H
	DW	053H
	DW	011H
	DW	010H
?keybits@?1??get_keys_pressed@@9@9 DD 01H		; `get_keys_pressed'::`2'::keybits
	DD	01H
	DD	02H
	DD	02H
	DD	04H
	DD	04H
	DD	08H
	DD	08H
	DD	010H
	DD	040H
$SG41687 DB	'[Prec Loss]', 00H
$SG41689 DB	'Calculating...', 00H
	ORG $+1
$SG41690 DB	'Ready ', 00H
	ORG $+1
$SG41691 DB	'%s%s', 00H
	ORG $+3
$SG41692 DB	'%d/%d  %c', 00H
	ORG $+2
$SG41700 DB	'%c Palette', 00H
	ORG $+1
$SG41708 DB	'This feature is not implemented yet.', 00H
	ORG $+3
$SG41716 DB	'Your (obsolete) CPU cannot run this algorithm/precision '
	DB	'combination.', 0aH, 'Using C algorithm.', 00H
$SG41723 DB	'Warning', 00H
$SG41724 DB	'Using the Fast algorithm with Normalized rendering may', 0aH
	DB	'cause image artifacts. Switch to the Exact algorithm?', 00H
	ORG $+3
$SG41732 DB	'  Algorithm', 00H
$SG41807 DB	'QuickMAN Help', 00H
	ORG $+2
$SG40789 DB	'oversample_debug.%d.csv', 00H
$SG40790 DB	'a', 00H
	ORG $+2
$SG40794 DB	'%16.16lf,%16.16lf', 00H
	ORG $+2
$SG40797 DB	'%16.16lf,%16.16lf', 00H
	ORG $+2
$SG40798 DB	',', 00H
	ORG $+2
$SG40801 DB	',%d', 00H
$SG40803 DB	',', 00H
	ORG $+2
$SG40804 DB	0aH, 00H
	ORG $+2
$SG40806 DB	0aH, 00H
	ORG $+2
$SG41859 DB	'.png', 00H
	ORG $+3
$SG41860 DB	'.png', 00H
	ORG $+3
$SG41862 DB	'rb', 00H
	ORG $+1
$SG41863 DB	'%s already exists. Overwrite?', 00H
	ORG $+2
$SG41865 DB	'Warning', 00H
$SG41869 DB	'Saving... (%3.1f%%)', 00H
$SG41870 DB	'Saved in %.1fs', 00H
_DATA	ENDS
PUBLIC	_WinMain@16
PUBLIC	___local_stdio_printf_options
PUBLIC	__vsprintf_s_l
PUBLIC	_sprintf_s
PUBLIC	_do_man_calculate
PUBLIC	_copy_changed_settings
PUBLIC	_autoreset_settings
PUBLIC	_invalidate_settings
PUBLIC	_log_read_entry
PUBLIC	_open_file
PUBLIC	_log_read
PUBLIC	_log_update
PUBLIC	_log_get
PUBLIC	_read_cfg_file
PUBLIC	_add_user_palettes_and_logfiles
PUBLIC	_get_timer
PUBLIC	_get_seconds_elapsed
PUBLIC	_get_keys_pressed
PUBLIC	_reset_thread_load_counters
PUBLIC	_reset_fps_values
PUBLIC	_get_re_im_offs
PUBLIC	_update_re_im
PUBLIC	_update_re_im_mag
PUBLIC	_man_calculate_threaded@4
PUBLIC	_check_precision_loss
PUBLIC	_man_setup
PUBLIC	_man_calculate
PUBLIC	_swap_quadrants
PUBLIC	_reset_quadrants
PUBLIC	_intersect_rect
PUBLIC	_man_calculate_quadrants
PUBLIC	_pan_image
PUBLIC	_get_image_info
PUBLIC	_print_fps_status_line
PUBLIC	_update_benchmarks
PUBLIC	_reset_pan_state
PUBLIC	_get_pan_steps
PUBLIC	_do_panning
PUBLIC	_get_mouse_re_im
PUBLIC	_do_zooming
PUBLIC	_do_recalc
PUBLIC	_init_man
PUBLIC	_get_cpu_info
PUBLIC	_alloc_man_mem
PUBLIC	_free_man_mem
PUBLIC	_create_bitmap
PUBLIC	_init_combo_box
PUBLIC	_get_string_index
PUBLIC	_get_builtin_palette
PUBLIC	_get_user_palette
PUBLIC	_get_rendering_alg
PUBLIC	_get_precision
PUBLIC	_get_alg
PUBLIC	_get_num_threads
PUBLIC	_update_iters
PUBLIC	_set_home_image
PUBLIC	_get_dialog_fields
PUBLIC	_set_slider_pos
PUBLIC	_setup_sliders
PUBLIC	_print_status_line
PUBLIC	_print_palette_status
PUBLIC	_not_implemented_yet
PUBLIC	_unsupported_alg_prec
PUBLIC	_unrecommended_alg
PUBLIC	_set_alg_warning
PUBLIC	_check_alg
PUBLIC	_get_system_metrics
PUBLIC	_update_dialog
PUBLIC	_toggle_fullscreen
PUBLIC	_show_help@4
PUBLIC	_resize_window
PUBLIC	_do_save@4
PUBLIC	_man_dialog_proc@16
PUBLIC	_striped_blit
PUBLIC	_confine_mouse_cursor
PUBLIC	_MainWndProc@16
PUBLIC	_fancy_intro
PUBLIC	__real@0000000000000000
PUBLIC	__real@3ea9273b38557509
PUBLIC	__real@3eb0c6f7a0b5ed8d
PUBLIC	__real@3edbf647612f3696
PUBLIC	__real@3f1a36e2eb1c432d
PUBLIC	__real@3f50624dd2f1a9fc
PUBLIC	__real@3f947ae147ae147b
PUBLIC	__real@3fd0000000000000
PUBLIC	__real@3fd3333333333333
PUBLIC	__real@3fe0000000000000
PUBLIC	__real@3ff0000000000000
PUBLIC	__real@3ff11eb851eb851f
PUBLIC	__real@3ff599999999999a
PUBLIC	__real@40000000
PUBLIC	__real@4000000000000000
PUBLIC	__real@4010000000000000
PUBLIC	__real@4022000000000000
PUBLIC	__real@4030000000000000
PUBLIC	__real@4059000000000000
PUBLIC	__real@40c3880000000000
PUBLIC	__real@411de84000000000
PUBLIC	__real@41800000
PUBLIC	__real@bfe0000000000000
PUBLIC	__real@bfe6666666666666
PUBLIC	__real@bff0000000000000
PUBLIC	__xmm@41f00000000000000000000000000000
PUBLIC	__xmm@80000000000000008000000000000000
EXTRN	_memset:PROC
EXTRN	_strcat_s:PROC
EXTRN	_strcmp:PROC
EXTRN	_strlen:PROC
EXTRN	__strnicmp:PROC
EXTRN	__imp__SetEvent@4:PROC
EXTRN	__imp__CreateEventA@16:PROC
EXTRN	__imp__Sleep@4:PROC
EXTRN	__imp__GetSystemInfo@4:PROC
EXTRN	__imp__QueueUserWorkItem@12:PROC
EXTRN	__imp__WaitForMultipleObjects@16:PROC
EXTRN	__imp__BitBlt@36:PROC
EXTRN	__imp__CreateCompatibleDC@4:PROC
EXTRN	__imp__CreatePen@12:PROC
EXTRN	__imp__DeleteObject@4:PROC
EXTRN	__imp__GetDeviceCaps@8:PROC
EXTRN	__imp__Rectangle@20:PROC
EXTRN	__imp__SelectObject@8:PROC
EXTRN	__imp__SetROP2@8:PROC
EXTRN	__imp__CreateDIBSection@24:PROC
EXTRN	__imp__TranslateMessage@4:PROC
EXTRN	__imp__DispatchMessageA@4:PROC
EXTRN	__imp__PeekMessageA@20:PROC
EXTRN	__imp__SendMessageA@16:PROC
EXTRN	__imp__DefWindowProcA@16:PROC
EXTRN	__imp__PostQuitMessage@4:PROC
EXTRN	__imp__RegisterClassExA@4:PROC
EXTRN	__imp__CreateWindowExA@48:PROC
EXTRN	__imp__ShowWindow@8:PROC
EXTRN	__imp__SetWindowPos@28:PROC
EXTRN	__imp__GetWindowPlacement@8:PROC
EXTRN	__imp__CreateDialogParamA@20:PROC
EXTRN	__imp__GetDlgItem@8:PROC
EXTRN	__imp__SetDlgItemInt@16:PROC
EXTRN	__imp__GetDlgItemInt@16:PROC
EXTRN	__imp__GetDlgItemTextA@16:PROC
EXTRN	__imp__IsDlgButtonChecked@8:PROC
EXTRN	__imp__SendDlgItemMessageA@20:PROC
EXTRN	__imp__SetFocus@4:PROC
EXTRN	__imp__GetFocus@0:PROC
EXTRN	__imp__GetAsyncKeyState@4:PROC
EXTRN	__imp__SetCapture@4:PROC
EXTRN	__imp__ReleaseCapture@0:PROC
EXTRN	__imp__GetSystemMetrics@4:PROC
EXTRN	__imp__UpdateWindow@4:PROC
EXTRN	__imp__GetDC@4:PROC
EXTRN	__imp__ReleaseDC@8:PROC
EXTRN	__imp__BeginPaint@8:PROC
EXTRN	__imp__EndPaint@8:PROC
EXTRN	__imp__InvalidateRect@12:PROC
EXTRN	__imp__SetWindowTextA@8:PROC
EXTRN	__imp__GetClientRect@8:PROC
EXTRN	__imp__GetWindowRect@8:PROC
EXTRN	__imp__MessageBoxA@16:PROC
EXTRN	__imp__SetCursor@4:PROC
EXTRN	__imp__ClipCursor@4:PROC
EXTRN	__imp__GetCursor@0:PROC
EXTRN	__imp__ClientToScreen@8:PROC
EXTRN	__imp__SetRect@20:PROC
EXTRN	__imp__SetWindowLongA@12:PROC
EXTRN	__imp__GetDesktopWindow@0:PROC
EXTRN	__imp__LoadCursorA@8:PROC
EXTRN	__imp__LoadIconA@8:PROC
EXTRN	__imp__IsDialogMessageA@8:PROC
EXTRN	_fopen_s:PROC
EXTRN	_fclose:PROC
EXTRN	_feof:PROC
EXTRN	_fgets:PROC
EXTRN	_fputs:PROC
EXTRN	___stdio_common_vsprintf_s:PROC
EXTRN	_free:PROC
EXTRN	_malloc:PROC
EXTRN	_abs:PROC
EXTRN	_atof:PROC
EXTRN	__imp__timeGetTime@0:PROC
EXTRN	__imp__timeBeginPeriod@4:PROC
EXTRN	__imp__timeEndPeriod@4:PROC
EXTRN	__imp__InitCommonControls@0:PROC
EXTRN	_png_save_start:PROC
EXTRN	_png_save_write_row:PROC
EXTRN	_png_save_end:PROC
EXTRN	_init_palettes:PROC
EXTRN	_load_palette:PROC
EXTRN	_load_palette_from_bmp:PROC
EXTRN	_get_palette_rgb_val:PROC
EXTRN	_apply_palette:PROC
EXTRN	__allshl:PROC
EXTRN	__dtoui3:PROC
EXTRN	__ltod3:PROC
EXTRN	__ultod3:PROC
EXTRN	__fltused:DWORD
_DATA	SEGMENT
COMM	?_OptionsStorage@?1??__local_stdio_printf_options@@9@9:QWORD							; `__local_stdio_printf_options'::`2'::_OptionsStorage
_DATA	ENDS
_BSS	SEGMENT
_prev_xsize DD	01H DUP (?)
_prev_ysize DD	01H DUP (?)
_mouse_re DQ	01H DUP (?)
_mouse_im DQ	01H DUP (?)
_zoom_start_mag DQ 01H DUP (?)
_num_builtin_palettes DD 01H DUP (?)
_palette_file DB 0100H DUP (?)
_zoom_start_time DD 01H DUP (?)
_mouse_x DD	02H DUP (?)
_mouse_y DD	02H DUP (?)
_mag_cursor DD	01H DUP (?)
_rtzoom_cursor DD 01H DUP (?)
_hopen_cursor DD 01H DUP (?)
_hclosed_cursor DD 01H DUP (?)
_arrow_cursor DD 01H DUP (?)
_wait_cursor DD	01H DUP (?)
_mag_zoom_cursor DD 01H DUP (?)
_main_rect DB	010H DUP (?)
_hwnd_main DD	01H DUP (?)
_hwnd_info DD	01H DUP (?)
_hwnd_status DD	01H DUP (?)
_hwnd_status2 DD 01H DUP (?)
_hwnd_iters DD	01H DUP (?)
_hwnd_thumbnail_frame DD 01H DUP (?)
_x_border DD	01H DUP (?)
_y_border DD	01H DUP (?)
_y_thinborder DD 01H DUP (?)
_x_dialog_border DD 01H DUP (?)
_y_dialog_border DD 01H DUP (?)
_lpix_per_inch DD 01H DUP (?)
_update_rect DB	028H DUP (?)
_quad	DB	0e0H DUP (?)
_screen_xpos DD	01H DUP (?)
_screen_ypos DD	01H DUP (?)
_wave_ptr_offs DD 01cH DUP (?)
_cur_file_settings DB 0104H DUP (?)
?s@?1??get_image_info@@9@9 DB 0800H DUP (?)		; `get_image_info'::`2'::s
?iters_str@?1??get_image_info@@9@9 DB 0100H DUP (?)	; `get_image_info'::`2'::iters_str
?wait_release@?1??get_pan_steps@@9@9 DD 01H DUP (?)	; `get_pan_steps'::`2'::wait_release
?start_time@?1??do_panning@@9@9 DD 01H DUP (?)		; `do_panning'::`2'::start_time
?hpen@?1??MainWndProc@@9@9 DD 01H DUP (?)		; `MainWndProc'::`2'::hpen
?prev_mouse_y@?1??MainWndProc@@9@9 DD 01H DUP (?)	; `MainWndProc'::`2'::prev_mouse_y
_BSS	ENDS
;	COMDAT __xmm@80000000000000008000000000000000
CONST	SEGMENT
__xmm@80000000000000008000000000000000 DB 00H, 00H, 00H, 00H, 00H, 00H, 00H
	DB	080H, 00H, 00H, 00H, 00H, 00H, 00H, 00H, 080H
CONST	ENDS
;	COMDAT __xmm@41f00000000000000000000000000000
CONST	SEGMENT
__xmm@41f00000000000000000000000000000 DB 00H, 00H, 00H, 00H, 00H, 00H, 00H
	DB	00H, 00H, 00H, 00H, 00H, 00H, 00H, 0f0H, 'A'
CONST	ENDS
;	COMDAT __real@bff0000000000000
CONST	SEGMENT
__real@bff0000000000000 DQ 0bff0000000000000r	; -1
CONST	ENDS
;	COMDAT __real@bfe6666666666666
CONST	SEGMENT
__real@bfe6666666666666 DQ 0bfe6666666666666r	; -0.7
CONST	ENDS
;	COMDAT __real@bfe0000000000000
CONST	SEGMENT
__real@bfe0000000000000 DQ 0bfe0000000000000r	; -0.5
CONST	ENDS
;	COMDAT __real@41800000
CONST	SEGMENT
__real@41800000 DD 041800000r			; 16
CONST	ENDS
;	COMDAT __real@411de84000000000
CONST	SEGMENT
__real@411de84000000000 DQ 0411de84000000000r	; 490000
CONST	ENDS
;	COMDAT __real@40c3880000000000
CONST	SEGMENT
__real@40c3880000000000 DQ 040c3880000000000r	; 10000
CONST	ENDS
;	COMDAT __real@4059000000000000
CONST	SEGMENT
__real@4059000000000000 DQ 04059000000000000r	; 100
CONST	ENDS
;	COMDAT __real@4030000000000000
CONST	SEGMENT
__real@4030000000000000 DQ 04030000000000000r	; 16
CONST	ENDS
;	COMDAT __real@4022000000000000
CONST	SEGMENT
__real@4022000000000000 DQ 04022000000000000r	; 9
CONST	ENDS
;	COMDAT __real@4010000000000000
CONST	SEGMENT
__real@4010000000000000 DQ 04010000000000000r	; 4
CONST	ENDS
;	COMDAT __real@4000000000000000
CONST	SEGMENT
__real@4000000000000000 DQ 04000000000000000r	; 2
CONST	ENDS
;	COMDAT __real@40000000
CONST	SEGMENT
__real@40000000 DD 040000000r			; 2
CONST	ENDS
;	COMDAT __real@3ff599999999999a
CONST	SEGMENT
__real@3ff599999999999a DQ 03ff599999999999ar	; 1.35
CONST	ENDS
;	COMDAT __real@3ff11eb851eb851f
CONST	SEGMENT
__real@3ff11eb851eb851f DQ 03ff11eb851eb851fr	; 1.07
CONST	ENDS
;	COMDAT __real@3ff0000000000000
CONST	SEGMENT
__real@3ff0000000000000 DQ 03ff0000000000000r	; 1
CONST	ENDS
;	COMDAT __real@3fe0000000000000
CONST	SEGMENT
__real@3fe0000000000000 DQ 03fe0000000000000r	; 0.5
CONST	ENDS
;	COMDAT __real@3fd3333333333333
CONST	SEGMENT
__real@3fd3333333333333 DQ 03fd3333333333333r	; 0.3
CONST	ENDS
;	COMDAT __real@3fd0000000000000
CONST	SEGMENT
__real@3fd0000000000000 DQ 03fd0000000000000r	; 0.25
CONST	ENDS
;	COMDAT __real@3f947ae147ae147b
CONST	SEGMENT
__real@3f947ae147ae147b DQ 03f947ae147ae147br	; 0.02
CONST	ENDS
;	COMDAT __real@3f50624dd2f1a9fc
CONST	SEGMENT
__real@3f50624dd2f1a9fc DQ 03f50624dd2f1a9fcr	; 0.001
CONST	ENDS
;	COMDAT __real@3f1a36e2eb1c432d
CONST	SEGMENT
__real@3f1a36e2eb1c432d DQ 03f1a36e2eb1c432dr	; 0.0001
CONST	ENDS
;	COMDAT __real@3edbf647612f3696
CONST	SEGMENT
__real@3edbf647612f3696 DQ 03edbf647612f3696r	; 6.66667e-06
CONST	ENDS
;	COMDAT __real@3eb0c6f7a0b5ed8d
CONST	SEGMENT
__real@3eb0c6f7a0b5ed8d DQ 03eb0c6f7a0b5ed8dr	; 1e-06
CONST	ENDS
;	COMDAT __real@3ea9273b38557509
CONST	SEGMENT
__real@3ea9273b38557509 DQ 03ea9273b38557509r	; 7.49625e-07
CONST	ENDS
;	COMDAT __real@0000000000000000
CONST	SEGMENT
__real@0000000000000000 DQ 00000000000000000r	; 0
CONST	ENDS
; Function compile flags: /Odtp /ZI
; File d:\stanley\desktop\quickman_v110\source\quickman.c
;	COMDAT _fancy_intro
_TEXT	SEGMENT
_m$ = -4						; size = 4
_fancy_intro PROC					; COMDAT

; 4781 : {

  00000	55		 push	 ebp
  00001	8b ec		 mov	 ebp, esp
  00003	83 ec 44	 sub	 esp, 68			; 00000044H
  00006	53		 push	 ebx
  00007	56		 push	 esi
  00008	57		 push	 edi

; 4782 :    #define MAG_STEP 1.07 // slow down a bit from previous versions
; 4783 : 
; 4784 :    man_calc_struct *m;
; 4785 : 
; 4786 :    m = &main_man_calc_struct;

  00009	c7 45 fc 00 00
	00 00		 mov	 DWORD PTR _m$[ebp], OFFSET _main_man_calc_struct

; 4787 : 
; 4788 :    set_home_image();

  00010	e8 00 00 00 00	 call	 _set_home_image

; 4789 :    m->max_iters = 64;

  00015	8b 45 fc	 mov	 eax, DWORD PTR _m$[ebp]
  00018	c7 80 c0 8d 00
	00 40 00 00 00	 mov	 DWORD PTR [eax+36288], 64 ; 00000040H

; 4790 :    m->mag = MAG_START;

  00022	8b 45 fc	 mov	 eax, DWORD PTR _m$[ebp]
  00025	f2 0f 10 05 00
	00 00 00	 movsd	 xmm0, QWORD PTR __real@3fd3333333333333
  0002d	f2 0f 11 80 b8
	8d 00 00	 movsd	 QWORD PTR [eax+36280], xmm0

; 4791 :    do_rtzoom = 1; // prevent status line from being updated

  00035	c7 05 00 00 00
	00 01 00 00 00	 mov	 DWORD PTR _do_rtzoom, 1
$LN4@fancy_intr:

; 4792 :    do
; 4793 :    {
; 4794 :       do_man_calculate(1);

  0003f	6a 01		 push	 1
  00041	e8 00 00 00 00	 call	 _do_man_calculate
  00046	83 c4 04	 add	 esp, 4

; 4795 :       m->mag *= MAG_STEP;

  00049	8b 45 fc	 mov	 eax, DWORD PTR _m$[ebp]
  0004c	f2 0f 10 80 b8
	8d 00 00	 movsd	 xmm0, QWORD PTR [eax+36280]
  00054	f2 0f 59 05 00
	00 00 00	 mulsd	 xmm0, QWORD PTR __real@3ff11eb851eb851f
  0005c	8b 4d fc	 mov	 ecx, DWORD PTR _m$[ebp]
  0005f	f2 0f 11 81 b8
	8d 00 00	 movsd	 QWORD PTR [ecx+36280], xmm0

; 4796 :    }
; 4797 :    while (m->mag <= 1.35);

  00067	8b 45 fc	 mov	 eax, DWORD PTR _m$[ebp]
  0006a	f2 0f 10 05 00
	00 00 00	 movsd	 xmm0, QWORD PTR __real@3ff599999999999a
  00072	66 0f 2f 80 b8
	8d 00 00	 comisd	 xmm0, QWORD PTR [eax+36280]
  0007a	73 c3		 jae	 SHORT $LN4@fancy_intr

; 4798 : 
; 4799 :    set_home_image();

  0007c	e8 00 00 00 00	 call	 _set_home_image

; 4800 :    do_man_calculate(1);

  00081	6a 01		 push	 1
  00083	e8 00 00 00 00	 call	 _do_man_calculate
  00088	83 c4 04	 add	 esp, 4

; 4801 :    do_rtzoom = 0;

  0008b	c7 05 00 00 00
	00 00 00 00 00	 mov	 DWORD PTR _do_rtzoom, 0

; 4802 :    status &= ~STAT_RECALC_IMMEDIATELY; // "resized" initially, but no need to calc again

  00095	a1 00 00 00 00	 mov	 eax, DWORD PTR _status
  0009a	83 e0 f7	 and	 eax, -9			; fffffff7H
  0009d	a3 00 00 00 00	 mov	 DWORD PTR _status, eax

; 4803 : 
; 4804 :    SetWindowText(hwnd_info, get_image_info(1)); // print first info, status

  000a2	6a 01		 push	 1
  000a4	e8 00 00 00 00	 call	 _get_image_info
  000a9	83 c4 04	 add	 esp, 4
  000ac	50		 push	 eax
  000ad	a1 00 00 00 00	 mov	 eax, DWORD PTR _hwnd_info
  000b2	50		 push	 eax
  000b3	ff 15 00 00 00
	00		 call	 DWORD PTR __imp__SetWindowTextA@8

; 4805 :    print_status_line(0);

  000b9	6a 00		 push	 0
  000bb	e8 00 00 00 00	 call	 _print_status_line
  000c0	83 c4 04	 add	 esp, 4

; 4806 : 
; 4807 :    file_tot_time = 0.0; // don't count intro time in file total time

  000c3	0f 57 c0	 xorps	 xmm0, xmm0
  000c6	f2 0f 11 05 00
	00 00 00	 movsd	 QWORD PTR _file_tot_time, xmm0

; 4808 : }

  000ce	5f		 pop	 edi
  000cf	5e		 pop	 esi
  000d0	5b		 pop	 ebx
  000d1	8b e5		 mov	 esp, ebp
  000d3	5d		 pop	 ebp
  000d4	c3		 ret	 0
_fancy_intro ENDP
_TEXT	ENDS
; Function compile flags: /Odtp /ZI
; File d:\stanley\desktop\quickman_v110\source\quickman.c
;	COMDAT _MainWndProc@16
_TEXT	SEGMENT
tv459 = -212						; size = 4
tv409 = -212						; size = 4
tv407 = -212						; size = 4
tv395 = -212						; size = 4
tv390 = -212						; size = 4
tv388 = -212						; size = 4
tv64 = -212						; size = 4
_offs_y$1 = -144					; size = 4
_offs_x$2 = -140					; size = 4
_m$ = -136						; size = 4
_wp$ = -132						; size = 44
_q$ = -88						; size = 4
_ps$ = -84						; size = 64
_hdc$ = -20						; size = 4
_rc$ = -16						; size = 16
_hwnd$ = 8						; size = 4
_nMsg$ = 12						; size = 4
_wParam$ = 16						; size = 4
_lParam$ = 20						; size = 4
_MainWndProc@16 PROC					; COMDAT

; 4406 : {

  00000	55		 push	 ebp
  00001	8b ec		 mov	 ebp, esp
  00003	81 ec d4 00 00
	00		 sub	 esp, 212		; 000000d4H
  00009	53		 push	 ebx
  0000a	56		 push	 esi
  0000b	57		 push	 edi

; 4407 :    RECT rc;
; 4408 :    HDC hdc;
; 4409 :    PAINTSTRUCT ps;
; 4410 :    quadrant *q;
; 4411 :    WINDOWPLACEMENT wp;
; 4412 : 
; 4413 :    static HPEN hpen;                   // for drawing the zoom box
; 4414 :    static int prev_mouse_x = -1, prev_mouse_y;
; 4415 :    static int dragging = 0, have_box = 0;
; 4416 :    static int allow_mode_change = 1;   // flag indicating whether zoom/pan mode change is allowed
; 4417 :    static int zoom_mode_pending = 0;   // flag indicating need a change back to zoom mode
; 4418 :    static int prev_nav_mode = MODE_RTZOOM;
; 4419 :    static int prev_sizing = 0;
; 4420 :    static int prev_max_restore = 0;    // used to detect when window transitioned from maximized to restored
; 4421 : 
; 4422 :    man_calc_struct *m;
; 4423 : 
; 4424 :    m = &main_man_calc_struct;

  0000c	c7 85 78 ff ff
	ff 00 00 00 00	 mov	 DWORD PTR _m$[ebp], OFFSET _main_man_calc_struct

; 4425 : 
; 4426 :    switch (nMsg)

  00016	8b 45 0c	 mov	 eax, DWORD PTR _nMsg$[ebp]
  00019	89 85 2c ff ff
	ff		 mov	 DWORD PTR tv64[ebp], eax
  0001f	81 bd 2c ff ff
	ff 11 01 00 00	 cmp	 DWORD PTR tv64[ebp], 273 ; 00000111H
  00029	0f 87 88 00 00
	00		 ja	 $LN85@MainWndPro
  0002f	81 bd 2c ff ff
	ff 11 01 00 00	 cmp	 DWORD PTR tv64[ebp], 273 ; 00000111H
  00039	0f 84 aa 0d 00
	00		 je	 $LN72@MainWndPro
  0003f	83 bd 2c ff ff
	ff 47		 cmp	 DWORD PTR tv64[ebp], 71	; 00000047H
  00046	77 3d		 ja	 SHORT $LN86@MainWndPro
  00048	83 bd 2c ff ff
	ff 47		 cmp	 DWORD PTR tv64[ebp], 71	; 00000047H
  0004f	0f 84 1d 0c 00
	00		 je	 $LN65@MainWndPro
  00055	8b 8d 2c ff ff
	ff		 mov	 ecx, DWORD PTR tv64[ebp]
  0005b	83 e9 01	 sub	 ecx, 1
  0005e	89 8d 2c ff ff
	ff		 mov	 DWORD PTR tv64[ebp], ecx
  00064	83 bd 2c ff ff
	ff 1f		 cmp	 DWORD PTR tv64[ebp], 31	; 0000001fH
  0006b	0f 87 88 0d 00
	00		 ja	 $LN2@MainWndPro
  00071	8b 95 2c ff ff
	ff		 mov	 edx, DWORD PTR tv64[ebp]
  00077	0f b6 82 00 00
	00 00		 movzx	 eax, BYTE PTR $LN87@MainWndPro[edx]
  0007e	ff 24 85 00 00
	00 00		 jmp	 DWORD PTR $LN90@MainWndPro[eax*4]
$LN86@MainWndPro:
  00085	83 bd 2c ff ff
	ff 53		 cmp	 DWORD PTR tv64[ebp], 83	; 00000053H
  0008c	0f 84 e9 0a 00
	00		 je	 $LN54@MainWndPro
  00092	81 bd 2c ff ff
	ff 00 01 00 00	 cmp	 DWORD PTR tv64[ebp], 256 ; 00000100H
  0009c	0f 84 42 08 00
	00		 je	 $LN38@MainWndPro
  000a2	81 bd 2c ff ff
	ff 01 01 00 00	 cmp	 DWORD PTR tv64[ebp], 257 ; 00000101H
  000ac	0f 84 eb 0a 00
	00		 je	 $LN55@MainWndPro
  000b2	e9 42 0d 00 00	 jmp	 $LN2@MainWndPro
$LN85@MainWndPro:
  000b7	8b 8d 2c ff ff
	ff		 mov	 ecx, DWORD PTR tv64[ebp]
  000bd	81 e9 00 02 00
	00		 sub	 ecx, 512		; 00000200H
  000c3	89 8d 2c ff ff
	ff		 mov	 DWORD PTR tv64[ebp], ecx
  000c9	83 bd 2c ff ff
	ff 32		 cmp	 DWORD PTR tv64[ebp], 50	; 00000032H
  000d0	0f 87 23 0d 00
	00		 ja	 $LN2@MainWndPro
  000d6	8b 95 2c ff ff
	ff		 mov	 edx, DWORD PTR tv64[ebp]
  000dc	0f b6 82 00 00
	00 00		 movzx	 eax, BYTE PTR $LN88@MainWndPro[edx]
  000e3	ff 24 85 00 00
	00 00		 jmp	 DWORD PTR $LN91@MainWndPro[eax*4]
$LN6@MainWndPro:

; 4427 :    {
; 4428 :       case WM_CREATE: // The window is being created
; 4429 : 
; 4430 :          hscreen_dc = CreateCompatibleDC(NULL); // screen device context

  000ea	6a 00		 push	 0
  000ec	ff 15 00 00 00
	00		 call	 DWORD PTR __imp__CreateCompatibleDC@4
  000f2	a3 00 00 00 00	 mov	 DWORD PTR _hscreen_dc, eax

; 4431 :          hwnd_dialog = CreateDialog(hinstance, MAKEINTRESOURCE(IDD_MAN_DIALOG), hwnd, man_dialog_proc);

  000f7	6a 00		 push	 0
  000f9	68 00 00 00 00	 push	 OFFSET _man_dialog_proc@16
  000fe	8b 45 08	 mov	 eax, DWORD PTR _hwnd$[ebp]
  00101	50		 push	 eax
  00102	6a 65		 push	 101			; 00000065H
  00104	8b 0d 00 00 00
	00		 mov	 ecx, DWORD PTR _hinstance
  0010a	51		 push	 ecx
  0010b	ff 15 00 00 00
	00		 call	 DWORD PTR __imp__CreateDialogParamA@20
  00111	a3 00 00 00 00	 mov	 DWORD PTR _hwnd_dialog, eax

; 4432 :          hpen = CreatePen(PS_SOLID, 2, RGB(0, 0, 0)); // pen for the zoom rectangle; easier to see than PS_DOT

  00116	6a 00		 push	 0
  00118	6a 02		 push	 2
  0011a	6a 00		 push	 0
  0011c	ff 15 00 00 00
	00		 call	 DWORD PTR __imp__CreatePen@12
  00122	a3 00 00 00 00	 mov	 DWORD PTR ?hpen@?1??MainWndProc@@9@9, eax

; 4433 :          setup_sliders();

  00127	e8 00 00 00 00	 call	 _setup_sliders

; 4434 :          set_alg_warning(); // warn if normalized rendering and fast alg

  0012c	e8 00 00 00 00	 call	 _set_alg_warning

; 4435 : 
; 4436 :          return FALSE;

  00131	33 c0		 xor	 eax, eax
  00133	e9 d7 0c 00 00	 jmp	 $LN1@MainWndPro
$LN7@MainWndPro:

; 4437 : 
; 4438 :       case WM_PAINT: // The window needs to be painted (redrawn).
; 4439 : 
; 4440 :          hdc = BeginPaint(hwnd, &ps);

  00138	8d 45 ac	 lea	 eax, DWORD PTR _ps$[ebp]
  0013b	50		 push	 eax
  0013c	8b 4d 08	 mov	 ecx, DWORD PTR _hwnd$[ebp]
  0013f	51		 push	 ecx
  00140	ff 15 00 00 00
	00		 call	 DWORD PTR __imp__BeginPaint@8
  00146	89 45 ec	 mov	 DWORD PTR _hdc$[ebp], eax

; 4441 : 
; 4442 :          // Blit the mandelbrot bitmap. Could take rectangular regions from 1 to 4 quadrants.
; 4443 :          // Blits thin horizontal stripes. See comments at striped_blit().
; 4444 :          // Do upper quadrants (UL and UR), then lower (LL and LR).
; 4445 : 
; 4446 :          // Also optimize for the case where we've recalculated the whole image (only UL
; 4447 :          // is valid). In this case do a normal blit.
; 4448 :          q = &quad[UL];

  00149	b8 38 00 00 00	 mov	 eax, 56			; 00000038H
  0014e	6b c8 00	 imul	 ecx, eax, 0
  00151	81 c1 00 00 00
	00		 add	 ecx, OFFSET _quad
  00157	89 4d a8	 mov	 DWORD PTR _q$[ebp], ecx

; 4449 :          if (q->blit_xsize == m->xsize && q->blit_ysize == m->ysize)

  0015a	8b 45 a8	 mov	 eax, DWORD PTR _q$[ebp]
  0015d	8b 8d 78 ff ff
	ff		 mov	 ecx, DWORD PTR _m$[ebp]
  00163	8b 50 30	 mov	 edx, DWORD PTR [eax+48]
  00166	3b 91 88 8d 00
	00		 cmp	 edx, DWORD PTR [ecx+36232]
  0016c	75 55		 jne	 SHORT $LN8@MainWndPro
  0016e	8b 45 a8	 mov	 eax, DWORD PTR _q$[ebp]
  00171	8b 8d 78 ff ff
	ff		 mov	 ecx, DWORD PTR _m$[ebp]
  00177	8b 50 34	 mov	 edx, DWORD PTR [eax+52]
  0017a	3b 91 8c 8d 00
	00		 cmp	 edx, DWORD PTR [ecx+36236]
  00180	75 41		 jne	 SHORT $LN8@MainWndPro

; 4450 :          {
; 4451 :             SelectObject(hscreen_dc, q->handle);

  00182	8b 45 a8	 mov	 eax, DWORD PTR _q$[ebp]
  00185	8b 48 04	 mov	 ecx, DWORD PTR [eax+4]
  00188	51		 push	 ecx
  00189	8b 15 00 00 00
	00		 mov	 edx, DWORD PTR _hscreen_dc
  0018f	52		 push	 edx
  00190	ff 15 00 00 00
	00		 call	 DWORD PTR __imp__SelectObject@8

; 4452 :             BitBlt(hdc, 0, 0, q->blit_xsize, q->blit_ysize, hscreen_dc, 0, 0, SRCCOPY);

  00196	68 20 00 cc 00	 push	 13369376		; 00cc0020H
  0019b	6a 00		 push	 0
  0019d	6a 00		 push	 0
  0019f	a1 00 00 00 00	 mov	 eax, DWORD PTR _hscreen_dc
  001a4	50		 push	 eax
  001a5	8b 4d a8	 mov	 ecx, DWORD PTR _q$[ebp]
  001a8	8b 51 34	 mov	 edx, DWORD PTR [ecx+52]
  001ab	52		 push	 edx
  001ac	8b 45 a8	 mov	 eax, DWORD PTR _q$[ebp]
  001af	8b 48 30	 mov	 ecx, DWORD PTR [eax+48]
  001b2	51		 push	 ecx
  001b3	6a 00		 push	 0
  001b5	6a 00		 push	 0
  001b7	8b 55 ec	 mov	 edx, DWORD PTR _hdc$[ebp]
  001ba	52		 push	 edx
  001bb	ff 15 00 00 00
	00		 call	 DWORD PTR __imp__BitBlt@36

; 4453 :          }

  001c1	eb 5e		 jmp	 SHORT $LN9@MainWndPro
$LN8@MainWndPro:

; 4454 :          else
; 4455 :          {
; 4456 :             striped_blit(&quad[UL], &quad[UR], hdc, hscreen_dc);

  001c3	a1 00 00 00 00	 mov	 eax, DWORD PTR _hscreen_dc
  001c8	50		 push	 eax
  001c9	8b 4d ec	 mov	 ecx, DWORD PTR _hdc$[ebp]
  001cc	51		 push	 ecx
  001cd	ba 38 00 00 00	 mov	 edx, 56			; 00000038H
  001d2	c1 e2 00	 shl	 edx, 0
  001d5	81 c2 00 00 00
	00		 add	 edx, OFFSET _quad
  001db	52		 push	 edx
  001dc	b8 38 00 00 00	 mov	 eax, 56			; 00000038H
  001e1	6b c8 00	 imul	 ecx, eax, 0
  001e4	81 c1 00 00 00
	00		 add	 ecx, OFFSET _quad
  001ea	51		 push	 ecx
  001eb	e8 00 00 00 00	 call	 _striped_blit
  001f0	83 c4 10	 add	 esp, 16			; 00000010H

; 4457 :             striped_blit(&quad[LL], &quad[LR], hdc, hscreen_dc);

  001f3	a1 00 00 00 00	 mov	 eax, DWORD PTR _hscreen_dc
  001f8	50		 push	 eax
  001f9	8b 4d ec	 mov	 ecx, DWORD PTR _hdc$[ebp]
  001fc	51		 push	 ecx
  001fd	ba 38 00 00 00	 mov	 edx, 56			; 00000038H
  00202	6b c2 03	 imul	 eax, edx, 3
  00205	05 00 00 00 00	 add	 eax, OFFSET _quad
  0020a	50		 push	 eax
  0020b	b9 38 00 00 00	 mov	 ecx, 56			; 00000038H
  00210	d1 e1		 shl	 ecx, 1
  00212	81 c1 00 00 00
	00		 add	 ecx, OFFSET _quad
  00218	51		 push	 ecx
  00219	e8 00 00 00 00	 call	 _striped_blit
  0021e	83 c4 10	 add	 esp, 16			; 00000010H
$LN9@MainWndPro:

; 4458 :          }
; 4459 :          EndPaint(hwnd, &ps);

  00221	8d 45 ac	 lea	 eax, DWORD PTR _ps$[ebp]
  00224	50		 push	 eax
  00225	8b 4d 08	 mov	 ecx, DWORD PTR _hwnd$[ebp]
  00228	51		 push	 ecx
  00229	ff 15 00 00 00
	00		 call	 DWORD PTR __imp__EndPaint@8

; 4460 :          return FALSE;

  0022f	33 c0		 xor	 eax, eax
  00231	e9 d9 0b 00 00	 jmp	 $LN1@MainWndPro
$LN10@MainWndPro:

; 4461 : 
; 4462 :       case WM_LBUTTONDOWN:
; 4463 : 
; 4464 :          // Save the coordinates of the mouse cursor.
; 4465 :          mouse_x[0] = LOWORD(lParam);

  00236	8b 45 14	 mov	 eax, DWORD PTR _lParam$[ebp]
  00239	25 ff ff 00 00	 and	 eax, 65535		; 0000ffffH
  0023e	b9 04 00 00 00	 mov	 ecx, 4
  00243	6b d1 00	 imul	 edx, ecx, 0
  00246	0f b7 c0	 movzx	 eax, ax
  00249	89 82 00 00 00
	00		 mov	 DWORD PTR _mouse_x[edx], eax

; 4466 :          mouse_y[0] = HIWORD(lParam);

  0024f	8b 45 14	 mov	 eax, DWORD PTR _lParam$[ebp]
  00252	c1 e8 10	 shr	 eax, 16			; 00000010H
  00255	25 ff ff 00 00	 and	 eax, 65535		; 0000ffffH
  0025a	b9 04 00 00 00	 mov	 ecx, 4
  0025f	6b d1 00	 imul	 edx, ecx, 0
  00262	0f b7 c0	 movzx	 eax, ax
  00265	89 82 00 00 00
	00		 mov	 DWORD PTR _mouse_y[edx], eax

; 4467 :          mouse_x[1] = LOWORD(lParam); // Init this for switch from zoom to pan also

  0026b	8b 45 14	 mov	 eax, DWORD PTR _lParam$[ebp]
  0026e	25 ff ff 00 00	 and	 eax, 65535		; 0000ffffH
  00273	b9 04 00 00 00	 mov	 ecx, 4
  00278	c1 e1 00	 shl	 ecx, 0
  0027b	0f b7 d0	 movzx	 edx, ax
  0027e	89 91 00 00 00
	00		 mov	 DWORD PTR _mouse_x[ecx], edx

; 4468 :          mouse_y[1] = HIWORD(lParam);

  00284	8b 45 14	 mov	 eax, DWORD PTR _lParam$[ebp]
  00287	c1 e8 10	 shr	 eax, 16			; 00000010H
  0028a	25 ff ff 00 00	 and	 eax, 65535		; 0000ffffH
  0028f	b9 04 00 00 00	 mov	 ecx, 4
  00294	c1 e1 00	 shl	 ecx, 0
  00297	0f b7 d0	 movzx	 edx, ax
  0029a	89 91 00 00 00
	00		 mov	 DWORD PTR _mouse_y[ecx], edx

; 4469 : 
; 4470 :          update_re_im(m, m->pan_xoffs, m->pan_yoffs);    // update re/im from any pan offsets and reset offsets

  002a0	8b 85 78 ff ff
	ff		 mov	 eax, DWORD PTR _m$[ebp]
  002a6	8b 88 a4 8d 00
	00		 mov	 ecx, DWORD PTR [eax+36260]
  002ac	51		 push	 ecx
  002ad	8b 90 a0 8d 00
	00		 mov	 edx, DWORD PTR [eax+36256]
  002b3	52		 push	 edx
  002b4	8b 85 78 ff ff
	ff		 mov	 eax, DWORD PTR _m$[ebp]
  002ba	8b 88 9c 8d 00
	00		 mov	 ecx, DWORD PTR [eax+36252]
  002c0	51		 push	 ecx
  002c1	8b 90 98 8d 00
	00		 mov	 edx, DWORD PTR [eax+36248]
  002c7	52		 push	 edx
  002c8	8b 85 78 ff ff
	ff		 mov	 eax, DWORD PTR _m$[ebp]
  002ce	50		 push	 eax
  002cf	e8 00 00 00 00	 call	 _update_re_im
  002d4	83 c4 14	 add	 esp, 20			; 00000014H

; 4471 :          get_mouse_re_im(mouse_x[0], mouse_y[0]);  // Get re/im coords at the mouse position, for realtime zoom

  002d7	b8 04 00 00 00	 mov	 eax, 4
  002dc	6b c8 00	 imul	 ecx, eax, 0
  002df	8b 91 00 00 00
	00		 mov	 edx, DWORD PTR _mouse_y[ecx]
  002e5	52		 push	 edx
  002e6	b8 04 00 00 00	 mov	 eax, 4
  002eb	6b c8 00	 imul	 ecx, eax, 0
  002ee	8b 91 00 00 00
	00		 mov	 edx, DWORD PTR _mouse_x[ecx]
  002f4	52		 push	 edx
  002f5	e8 00 00 00 00	 call	 _get_mouse_re_im
  002fa	83 c4 08	 add	 esp, 8

; 4472 :          prev_mouse_x = -1;

  002fd	c7 05 00 00 00
	00 ff ff ff ff	 mov	 DWORD PTR ?prev_mouse_x@?1??MainWndProc@@9@9, -1

; 4473 :          dragging = 1; // dragging either rectangle (for zoom) or image (for pan)

  00307	c7 05 00 00 00
	00 01 00 00 00	 mov	 DWORD PTR ?dragging@?1??MainWndProc@@9@9, 1

; 4474 : 
; 4475 :          confine_mouse_cursor();

  00311	e8 00 00 00 00	 call	 _confine_mouse_cursor

; 4476 : 
; 4477 :          if (nav_mode == MODE_PAN)

  00316	83 3d 00 00 00
	00 03		 cmp	 DWORD PTR _nav_mode, 3
  0031d	75 0c		 jne	 SHORT $LN11@MainWndPro

; 4478 :             SetCursor(hclosed_cursor);  // set closed hand

  0031f	a1 00 00 00 00	 mov	 eax, DWORD PTR _hclosed_cursor
  00324	50		 push	 eax
  00325	ff 15 00 00 00
	00		 call	 DWORD PTR __imp__SetCursor@4
$LN11@MainWndPro:

; 4479 :          if (nav_mode == MODE_RTZOOM)   // if in realtime zoom mode,

  0032b	83 3d 00 00 00
	00 02		 cmp	 DWORD PTR _nav_mode, 2
  00332	75 0c		 jne	 SHORT $LN12@MainWndPro

; 4480 :             do_rtzoom = RTZOOM_IN;      // set global flag for do_zooming()

  00334	c7 05 00 00 00
	00 01 00 00 00	 mov	 DWORD PTR _do_rtzoom, 1
  0033e	eb 0a		 jmp	 SHORT $LN13@MainWndPro
$LN12@MainWndPro:

; 4481 :          else
; 4482 :             allow_mode_change = 0;      // don't allow mode change while button is down if not in rtzoom mode

  00340	c7 05 00 00 00
	00 00 00 00 00	 mov	 DWORD PTR ?allow_mode_change@?1??MainWndProc@@9@9, 0
$LN13@MainWndPro:

; 4483 : 
; 4484 :          return FALSE;

  0034a	33 c0		 xor	 eax, eax
  0034c	e9 be 0a 00 00	 jmp	 $LN1@MainWndPro
$LN14@MainWndPro:

; 4485 : 
; 4486 :       case WM_LBUTTONUP: // Zoom in
; 4487 : 
; 4488 :          mouse_x[1] = LOWORD(lParam);

  00351	8b 45 14	 mov	 eax, DWORD PTR _lParam$[ebp]
  00354	25 ff ff 00 00	 and	 eax, 65535		; 0000ffffH
  00359	b9 04 00 00 00	 mov	 ecx, 4
  0035e	c1 e1 00	 shl	 ecx, 0
  00361	0f b7 d0	 movzx	 edx, ax
  00364	89 91 00 00 00
	00		 mov	 DWORD PTR _mouse_x[ecx], edx

; 4489 :          mouse_y[1] = HIWORD(lParam);

  0036a	8b 45 14	 mov	 eax, DWORD PTR _lParam$[ebp]
  0036d	c1 e8 10	 shr	 eax, 16			; 00000010H
  00370	25 ff ff 00 00	 and	 eax, 65535		; 0000ffffH
  00375	b9 04 00 00 00	 mov	 ecx, 4
  0037a	c1 e1 00	 shl	 ecx, 0
  0037d	0f b7 d0	 movzx	 edx, ax
  00380	89 91 00 00 00
	00		 mov	 DWORD PTR _mouse_y[ecx], edx

; 4490 :          allow_mode_change = 1;  // Allow mode change again after button released

  00386	c7 05 00 00 00
	00 01 00 00 00	 mov	 DWORD PTR ?allow_mode_change@?1??MainWndProc@@9@9, 1

; 4491 : 
; 4492 :          if (dragging)

  00390	83 3d 00 00 00
	00 00		 cmp	 DWORD PTR ?dragging@?1??MainWndProc@@9@9, 0
  00397	0f 84 83 00 00
	00		 je	 $LN15@MainWndPro

; 4493 :          {
; 4494 :             dragging = 0;

  0039d	c7 05 00 00 00
	00 00 00 00 00	 mov	 DWORD PTR ?dragging@?1??MainWndProc@@9@9, 0

; 4495 :             if (nav_mode == MODE_ZOOM)

  003a7	83 3d 00 00 00
	00 01		 cmp	 DWORD PTR _nav_mode, 1
  003ae	75 59		 jne	 SHORT $LN16@MainWndPro

; 4496 :             {
; 4497 :                // Update mandelbrot parms from rectangle and recalculate
; 4498 :                update_re_im_mag(have_box, 1, mouse_x[0], mouse_y[0], mouse_x[1], mouse_y[1]);

  003b0	b8 04 00 00 00	 mov	 eax, 4
  003b5	c1 e0 00	 shl	 eax, 0
  003b8	8b 88 00 00 00
	00		 mov	 ecx, DWORD PTR _mouse_y[eax]
  003be	51		 push	 ecx
  003bf	ba 04 00 00 00	 mov	 edx, 4
  003c4	c1 e2 00	 shl	 edx, 0
  003c7	8b 82 00 00 00
	00		 mov	 eax, DWORD PTR _mouse_x[edx]
  003cd	50		 push	 eax
  003ce	b9 04 00 00 00	 mov	 ecx, 4
  003d3	6b d1 00	 imul	 edx, ecx, 0
  003d6	8b 82 00 00 00
	00		 mov	 eax, DWORD PTR _mouse_y[edx]
  003dc	50		 push	 eax
  003dd	b9 04 00 00 00	 mov	 ecx, 4
  003e2	6b d1 00	 imul	 edx, ecx, 0
  003e5	8b 82 00 00 00
	00		 mov	 eax, DWORD PTR _mouse_x[edx]
  003eb	50		 push	 eax
  003ec	6a 01		 push	 1
  003ee	8b 0d 00 00 00
	00		 mov	 ecx, DWORD PTR ?have_box@?1??MainWndProc@@9@9
  003f4	51		 push	 ecx
  003f5	e8 00 00 00 00	 call	 _update_re_im_mag
  003fa	83 c4 18	 add	 esp, 24			; 00000018H

; 4499 :                do_man_calculate(1);

  003fd	6a 01		 push	 1
  003ff	e8 00 00 00 00	 call	 _do_man_calculate
  00404	83 c4 04	 add	 esp, 4

; 4500 :             }

  00407	eb 17		 jmp	 SHORT $LN15@MainWndPro
$LN16@MainWndPro:

; 4501 :             else // Update image info (excluding iters/sec) after pan or realtime zoom
; 4502 :                SetWindowText(hwnd_info, get_image_info(0));

  00409	6a 00		 push	 0
  0040b	e8 00 00 00 00	 call	 _get_image_info
  00410	83 c4 04	 add	 esp, 4
  00413	50		 push	 eax
  00414	a1 00 00 00 00	 mov	 eax, DWORD PTR _hwnd_info
  00419	50		 push	 eax
  0041a	ff 15 00 00 00
	00		 call	 DWORD PTR __imp__SetWindowTextA@8
$LN15@MainWndPro:

; 4503 :          }
; 4504 :          have_box = 0;

  00420	c7 05 00 00 00
	00 00 00 00 00	 mov	 DWORD PTR ?have_box@?1??MainWndProc@@9@9, 0

; 4505 : 
; 4506 :          if (zoom_mode_pending) // go back to zoom mode if change was pending

  0042a	83 3d 00 00 00
	00 00		 cmp	 DWORD PTR ?zoom_mode_pending@?1??MainWndProc@@9@9, 0
  00431	74 2e		 je	 SHORT $LN18@MainWndPro

; 4507 :          {
; 4508 :             nav_mode = prev_nav_mode;

  00433	a1 00 00 00 00	 mov	 eax, DWORD PTR ?prev_nav_mode@?1??MainWndProc@@9@9
  00438	a3 00 00 00 00	 mov	 DWORD PTR _nav_mode, eax

; 4509 :             if (GetCursor() != arrow_cursor) // Only if space released in client area (kluge)

  0043d	ff 15 00 00 00
	00		 call	 DWORD PTR __imp__GetCursor@0
  00443	3b 05 00 00 00
	00		 cmp	 eax, DWORD PTR _arrow_cursor
  00449	74 0c		 je	 SHORT $LN19@MainWndPro

; 4510 :                SetCursor(mag_zoom_cursor);

  0044b	a1 00 00 00 00	 mov	 eax, DWORD PTR _mag_zoom_cursor
  00450	50		 push	 eax
  00451	ff 15 00 00 00
	00		 call	 DWORD PTR __imp__SetCursor@4
$LN19@MainWndPro:

; 4511 :             zoom_mode_pending = 0;

  00457	c7 05 00 00 00
	00 00 00 00 00	 mov	 DWORD PTR ?zoom_mode_pending@?1??MainWndProc@@9@9, 0
$LN18@MainWndPro:

; 4512 :          }
; 4513 :          // allow dragging during zooming. Possibly some bug here, but I think I fixed it
; 4514 :          if (nav_mode != MODE_PAN)           // this implements zoom lock

  00461	83 3d 00 00 00
	00 03		 cmp	 DWORD PTR _nav_mode, 3
  00468	74 14		 je	 SHORT $LN20@MainWndPro

; 4515 :             do_rtzoom = prev_do_rtzoom = 0;  // clear realtime zoom flag for do_zooming()

  0046a	c7 05 00 00 00
	00 00 00 00 00	 mov	 DWORD PTR _prev_do_rtzoom, 0
  00474	a1 00 00 00 00	 mov	 eax, DWORD PTR _prev_do_rtzoom
  00479	a3 00 00 00 00	 mov	 DWORD PTR _do_rtzoom, eax
$LN20@MainWndPro:

; 4516 : 
; 4517 :          ClipCursor(NULL); // release mouse cursor and capture

  0047e	6a 00		 push	 0
  00480	ff 15 00 00 00
	00		 call	 DWORD PTR __imp__ClipCursor@4

; 4518 :          ReleaseCapture();

  00486	ff 15 00 00 00
	00		 call	 DWORD PTR __imp__ReleaseCapture@0

; 4519 : 
; 4520 :          return FALSE;

  0048c	33 c0		 xor	 eax, eax
  0048e	e9 7c 09 00 00	 jmp	 $LN1@MainWndPro
$LN21@MainWndPro:

; 4521 : 
; 4522 :       case WM_MOUSEMOVE:
; 4523 : 
; 4524 :          mouse_x[1] = LOWORD(lParam);

  00493	8b 45 14	 mov	 eax, DWORD PTR _lParam$[ebp]
  00496	25 ff ff 00 00	 and	 eax, 65535		; 0000ffffH
  0049b	b9 04 00 00 00	 mov	 ecx, 4
  004a0	c1 e1 00	 shl	 ecx, 0
  004a3	0f b7 d0	 movzx	 edx, ax
  004a6	89 91 00 00 00
	00		 mov	 DWORD PTR _mouse_x[ecx], edx

; 4525 :          mouse_y[1] = HIWORD(lParam);

  004ac	8b 45 14	 mov	 eax, DWORD PTR _lParam$[ebp]
  004af	c1 e8 10	 shr	 eax, 16			; 00000010H
  004b2	25 ff ff 00 00	 and	 eax, 65535		; 0000ffffH
  004b7	b9 04 00 00 00	 mov	 ecx, 4
  004bc	c1 e1 00	 shl	 ecx, 0
  004bf	0f b7 d0	 movzx	 edx, ax
  004c2	89 91 00 00 00
	00		 mov	 DWORD PTR _mouse_y[ecx], edx

; 4526 :          get_mouse_re_im(mouse_x[1], mouse_y[1]);  // Get re/im coords at the mouse position, for realtime zoom

  004c8	b8 04 00 00 00	 mov	 eax, 4
  004cd	c1 e0 00	 shl	 eax, 0
  004d0	8b 88 00 00 00
	00		 mov	 ecx, DWORD PTR _mouse_y[eax]
  004d6	51		 push	 ecx
  004d7	ba 04 00 00 00	 mov	 edx, 4
  004dc	c1 e2 00	 shl	 edx, 0
  004df	8b 82 00 00 00
	00		 mov	 eax, DWORD PTR _mouse_x[edx]
  004e5	50		 push	 eax
  004e6	e8 00 00 00 00	 call	 _get_mouse_re_im
  004eb	83 c4 08	 add	 esp, 8

; 4527 : 
; 4528 :          // If user is dragging, draw the zoom rectangle (zoom mode) or pan the image (pan mode)
; 4529 :          if (nav_mode == MODE_PAN) // panning mode- move the image

  004ee	83 3d 00 00 00
	00 03		 cmp	 DWORD PTR _nav_mode, 3
  004f5	0f 85 a3 00 00
	00		 jne	 $LN22@MainWndPro

; 4530 :          {
; 4531 :             if (wParam & (MK_LBUTTON | MK_RBUTTON)) // allow panning using right button drag also

  004fb	8b 45 10	 mov	 eax, DWORD PTR _wParam$[ebp]
  004fe	83 e0 03	 and	 eax, 3
  00501	0f 84 92 00 00
	00		 je	 $LN24@MainWndPro

; 4532 :             {
; 4533 :                int offs_x, offs_y;
; 4534 : 
; 4535 :                // Get difference from previous mouse location; use as pan offset
; 4536 :                offs_x = mouse_x[1] - mouse_x[0];

  00507	b8 04 00 00 00	 mov	 eax, 4
  0050c	c1 e0 00	 shl	 eax, 0
  0050f	b9 04 00 00 00	 mov	 ecx, 4
  00514	6b d1 00	 imul	 edx, ecx, 0
  00517	8b 80 00 00 00
	00		 mov	 eax, DWORD PTR _mouse_x[eax]
  0051d	2b 82 00 00 00
	00		 sub	 eax, DWORD PTR _mouse_x[edx]
  00523	89 85 74 ff ff
	ff		 mov	 DWORD PTR _offs_x$2[ebp], eax

; 4537 :                offs_y = mouse_y[1] - mouse_y[0];

  00529	b8 04 00 00 00	 mov	 eax, 4
  0052e	c1 e0 00	 shl	 eax, 0
  00531	b9 04 00 00 00	 mov	 ecx, 4
  00536	6b d1 00	 imul	 edx, ecx, 0
  00539	8b 80 00 00 00
	00		 mov	 eax, DWORD PTR _mouse_y[eax]
  0053f	2b 82 00 00 00
	00		 sub	 eax, DWORD PTR _mouse_y[edx]
  00545	89 85 70 ff ff
	ff		 mov	 DWORD PTR _offs_y$1[ebp], eax

; 4538 : 
; 4539 :                mouse_x[0] = mouse_x[1];    // update previous mouse location

  0054b	b8 04 00 00 00	 mov	 eax, 4
  00550	c1 e0 00	 shl	 eax, 0
  00553	b9 04 00 00 00	 mov	 ecx, 4
  00558	6b d1 00	 imul	 edx, ecx, 0
  0055b	8b 80 00 00 00
	00		 mov	 eax, DWORD PTR _mouse_x[eax]
  00561	89 82 00 00 00
	00		 mov	 DWORD PTR _mouse_x[edx], eax

; 4540 :                mouse_y[0] = mouse_y[1];

  00567	b8 04 00 00 00	 mov	 eax, 4
  0056c	c1 e0 00	 shl	 eax, 0
  0056f	b9 04 00 00 00	 mov	 ecx, 4
  00574	6b d1 00	 imul	 edx, ecx, 0
  00577	8b 80 00 00 00
	00		 mov	 eax, DWORD PTR _mouse_y[eax]
  0057d	89 82 00 00 00
	00		 mov	 DWORD PTR _mouse_y[edx], eax

; 4541 : 
; 4542 :                pan_image(offs_x, offs_y);  // do the pan

  00583	8b 85 70 ff ff
	ff		 mov	 eax, DWORD PTR _offs_y$1[ebp]
  00589	50		 push	 eax
  0058a	8b 8d 74 ff ff
	ff		 mov	 ecx, DWORD PTR _offs_x$2[ebp]
  00590	51		 push	 ecx
  00591	e8 00 00 00 00	 call	 _pan_image
  00596	83 c4 08	 add	 esp, 8
$LN24@MainWndPro:

; 4543 :             }
; 4544 :          }

  00599	e9 18 01 00 00	 jmp	 $LN23@MainWndPro
$LN22@MainWndPro:

; 4545 :          else if (nav_mode == MODE_ZOOM)

  0059e	83 3d 00 00 00
	00 01		 cmp	 DWORD PTR _nav_mode, 1
  005a5	0f 85 0b 01 00
	00		 jne	 $LN23@MainWndPro

; 4546 :          {
; 4547 :             if ((wParam & MK_LBUTTON) && dragging) // zoom rectangle

  005ab	8b 45 10	 mov	 eax, DWORD PTR _wParam$[ebp]
  005ae	83 e0 01	 and	 eax, 1
  005b1	0f 84 ff 00 00
	00		 je	 $LN23@MainWndPro
  005b7	83 3d 00 00 00
	00 00		 cmp	 DWORD PTR ?dragging@?1??MainWndProc@@9@9, 0
  005be	0f 84 f2 00 00
	00		 je	 $LN23@MainWndPro

; 4548 :             {
; 4549 :                hdc = GetDC(hwnd);

  005c4	8b 45 08	 mov	 eax, DWORD PTR _hwnd$[ebp]
  005c7	50		 push	 eax
  005c8	ff 15 00 00 00
	00		 call	 DWORD PTR __imp__GetDC@4
  005ce	89 45 ec	 mov	 DWORD PTR _hdc$[ebp], eax

; 4550 :                SelectObject(hdc, hpen);

  005d1	a1 00 00 00 00	 mov	 eax, DWORD PTR ?hpen@?1??MainWndProc@@9@9
  005d6	50		 push	 eax
  005d7	8b 4d ec	 mov	 ecx, DWORD PTR _hdc$[ebp]
  005da	51		 push	 ecx
  005db	ff 15 00 00 00
	00		 call	 DWORD PTR __imp__SelectObject@8

; 4551 : 
; 4552 :                SetROP2(hdc, R2_NOTXORPEN); // not ideal- can be tough to see at times

  005e1	6a 0a		 push	 10			; 0000000aH
  005e3	8b 45 ec	 mov	 eax, DWORD PTR _hdc$[ebp]
  005e6	50		 push	 eax
  005e7	ff 15 00 00 00
	00		 call	 DWORD PTR __imp__SetROP2@8

; 4553 : 
; 4554 :                // erase previous rectangle, if it exists
; 4555 :                if (prev_mouse_x >= 0 && prev_mouse_x != mouse_x[0])

  005ed	83 3d 00 00 00
	00 00		 cmp	 DWORD PTR ?prev_mouse_x@?1??MainWndProc@@9@9, 0
  005f4	7c 55		 jl	 SHORT $LN27@MainWndPro
  005f6	b8 04 00 00 00	 mov	 eax, 4
  005fb	6b c8 00	 imul	 ecx, eax, 0
  005fe	8b 15 00 00 00
	00		 mov	 edx, DWORD PTR ?prev_mouse_x@?1??MainWndProc@@9@9
  00604	3b 91 00 00 00
	00		 cmp	 edx, DWORD PTR _mouse_x[ecx]
  0060a	74 3f		 je	 SHORT $LN27@MainWndPro

; 4556 :                {
; 4557 :                   Rectangle(hdc, mouse_x[0], mouse_y[0], prev_mouse_x, prev_mouse_y);

  0060c	a1 00 00 00 00	 mov	 eax, DWORD PTR ?prev_mouse_y@?1??MainWndProc@@9@9
  00611	50		 push	 eax
  00612	8b 0d 00 00 00
	00		 mov	 ecx, DWORD PTR ?prev_mouse_x@?1??MainWndProc@@9@9
  00618	51		 push	 ecx
  00619	ba 04 00 00 00	 mov	 edx, 4
  0061e	6b c2 00	 imul	 eax, edx, 0
  00621	8b 88 00 00 00
	00		 mov	 ecx, DWORD PTR _mouse_y[eax]
  00627	51		 push	 ecx
  00628	ba 04 00 00 00	 mov	 edx, 4
  0062d	6b c2 00	 imul	 eax, edx, 0
  00630	8b 88 00 00 00
	00		 mov	 ecx, DWORD PTR _mouse_x[eax]
  00636	51		 push	 ecx
  00637	8b 55 ec	 mov	 edx, DWORD PTR _hdc$[ebp]
  0063a	52		 push	 edx
  0063b	ff 15 00 00 00
	00		 call	 DWORD PTR __imp__Rectangle@20

; 4558 :                   have_box = 1;

  00641	c7 05 00 00 00
	00 01 00 00 00	 mov	 DWORD PTR ?have_box@?1??MainWndProc@@9@9, 1
$LN27@MainWndPro:

; 4559 :                }
; 4560 : 
; 4561 :                // draw new rectangle
; 4562 :                Rectangle(hdc, mouse_x[0], mouse_y[0],

  0064b	b8 04 00 00 00	 mov	 eax, 4
  00650	c1 e0 00	 shl	 eax, 0
  00653	8b 88 00 00 00
	00		 mov	 ecx, DWORD PTR _mouse_y[eax]
  00659	89 0d 00 00 00
	00		 mov	 DWORD PTR ?prev_mouse_y@?1??MainWndProc@@9@9, ecx
  0065f	ba 04 00 00 00	 mov	 edx, 4
  00664	c1 e2 00	 shl	 edx, 0
  00667	8b 82 00 00 00
	00		 mov	 eax, DWORD PTR _mouse_x[edx]
  0066d	a3 00 00 00 00	 mov	 DWORD PTR ?prev_mouse_x@?1??MainWndProc@@9@9, eax
  00672	8b 0d 00 00 00
	00		 mov	 ecx, DWORD PTR ?prev_mouse_y@?1??MainWndProc@@9@9
  00678	51		 push	 ecx
  00679	8b 15 00 00 00
	00		 mov	 edx, DWORD PTR ?prev_mouse_x@?1??MainWndProc@@9@9
  0067f	52		 push	 edx
  00680	b8 04 00 00 00	 mov	 eax, 4
  00685	6b c8 00	 imul	 ecx, eax, 0
  00688	8b 91 00 00 00
	00		 mov	 edx, DWORD PTR _mouse_y[ecx]
  0068e	52		 push	 edx
  0068f	b8 04 00 00 00	 mov	 eax, 4
  00694	6b c8 00	 imul	 ecx, eax, 0
  00697	8b 91 00 00 00
	00		 mov	 edx, DWORD PTR _mouse_x[ecx]
  0069d	52		 push	 edx
  0069e	8b 45 ec	 mov	 eax, DWORD PTR _hdc$[ebp]
  006a1	50		 push	 eax
  006a2	ff 15 00 00 00
	00		 call	 DWORD PTR __imp__Rectangle@20

; 4563 :                          prev_mouse_x = mouse_x[1], prev_mouse_y = mouse_y[1]);
; 4564 :                ReleaseDC(hwnd, hdc);

  006a8	8b 45 ec	 mov	 eax, DWORD PTR _hdc$[ebp]
  006ab	50		 push	 eax
  006ac	8b 4d 08	 mov	 ecx, DWORD PTR _hwnd$[ebp]
  006af	51		 push	 ecx
  006b0	ff 15 00 00 00
	00		 call	 DWORD PTR __imp__ReleaseDC@8
$LN23@MainWndPro:

; 4565 :             }
; 4566 :          }
; 4567 :          return FALSE;

  006b6	33 c0		 xor	 eax, eax
  006b8	e9 52 07 00 00	 jmp	 $LN1@MainWndPro
$LN28@MainWndPro:

; 4568 : 
; 4569 :       case WM_RBUTTONDOWN: // Zoom out
; 4570 : 
; 4571 :          mouse_x[0] = LOWORD(lParam);

  006bd	8b 45 14	 mov	 eax, DWORD PTR _lParam$[ebp]
  006c0	25 ff ff 00 00	 and	 eax, 65535		; 0000ffffH
  006c5	b9 04 00 00 00	 mov	 ecx, 4
  006ca	6b d1 00	 imul	 edx, ecx, 0
  006cd	0f b7 c0	 movzx	 eax, ax
  006d0	89 82 00 00 00
	00		 mov	 DWORD PTR _mouse_x[edx], eax

; 4572 :          mouse_y[0] = HIWORD(lParam);

  006d6	8b 45 14	 mov	 eax, DWORD PTR _lParam$[ebp]
  006d9	c1 e8 10	 shr	 eax, 16			; 00000010H
  006dc	25 ff ff 00 00	 and	 eax, 65535		; 0000ffffH
  006e1	b9 04 00 00 00	 mov	 ecx, 4
  006e6	6b d1 00	 imul	 edx, ecx, 0
  006e9	0f b7 c0	 movzx	 eax, ax
  006ec	89 82 00 00 00
	00		 mov	 DWORD PTR _mouse_y[edx], eax

; 4573 :          mouse_x[1] = LOWORD(lParam); // Init this for switch from zoom to pan also

  006f2	8b 45 14	 mov	 eax, DWORD PTR _lParam$[ebp]
  006f5	25 ff ff 00 00	 and	 eax, 65535		; 0000ffffH
  006fa	b9 04 00 00 00	 mov	 ecx, 4
  006ff	c1 e1 00	 shl	 ecx, 0
  00702	0f b7 d0	 movzx	 edx, ax
  00705	89 91 00 00 00
	00		 mov	 DWORD PTR _mouse_x[ecx], edx

; 4574 :          mouse_y[1] = HIWORD(lParam);

  0070b	8b 45 14	 mov	 eax, DWORD PTR _lParam$[ebp]
  0070e	c1 e8 10	 shr	 eax, 16			; 00000010H
  00711	25 ff ff 00 00	 and	 eax, 65535		; 0000ffffH
  00716	b9 04 00 00 00	 mov	 ecx, 4
  0071b	c1 e1 00	 shl	 ecx, 0
  0071e	0f b7 d0	 movzx	 edx, ax
  00721	89 91 00 00 00
	00		 mov	 DWORD PTR _mouse_y[ecx], edx

; 4575 : 
; 4576 :          update_re_im(m, m->pan_xoffs, m->pan_yoffs);  // update re/im from any pan offsets and reset offsets

  00727	8b 85 78 ff ff
	ff		 mov	 eax, DWORD PTR _m$[ebp]
  0072d	8b 88 a4 8d 00
	00		 mov	 ecx, DWORD PTR [eax+36260]
  00733	51		 push	 ecx
  00734	8b 90 a0 8d 00
	00		 mov	 edx, DWORD PTR [eax+36256]
  0073a	52		 push	 edx
  0073b	8b 85 78 ff ff
	ff		 mov	 eax, DWORD PTR _m$[ebp]
  00741	8b 88 9c 8d 00
	00		 mov	 ecx, DWORD PTR [eax+36252]
  00747	51		 push	 ecx
  00748	8b 90 98 8d 00
	00		 mov	 edx, DWORD PTR [eax+36248]
  0074e	52		 push	 edx
  0074f	8b 85 78 ff ff
	ff		 mov	 eax, DWORD PTR _m$[ebp]
  00755	50		 push	 eax
  00756	e8 00 00 00 00	 call	 _update_re_im
  0075b	83 c4 14	 add	 esp, 20			; 00000014H

; 4577 :          get_mouse_re_im(mouse_x[0], mouse_y[0]);  // get re/im coords at the mouse position, for realtime zoom

  0075e	b8 04 00 00 00	 mov	 eax, 4
  00763	6b c8 00	 imul	 ecx, eax, 0
  00766	8b 91 00 00 00
	00		 mov	 edx, DWORD PTR _mouse_y[ecx]
  0076c	52		 push	 edx
  0076d	b8 04 00 00 00	 mov	 eax, 4
  00772	6b c8 00	 imul	 ecx, eax, 0
  00775	8b 91 00 00 00
	00		 mov	 edx, DWORD PTR _mouse_x[ecx]
  0077b	52		 push	 edx
  0077c	e8 00 00 00 00	 call	 _get_mouse_re_im
  00781	83 c4 08	 add	 esp, 8

; 4578 : 
; 4579 :          if (nav_mode == MODE_RTZOOM)  // if in realtime zoom mode,

  00784	83 3d 00 00 00
	00 02		 cmp	 DWORD PTR _nav_mode, 2
  0078b	75 0c		 jne	 SHORT $LN29@MainWndPro

; 4580 :             do_rtzoom = RTZOOM_OUT;    // set global flag for do_zooming()

  0078d	c7 05 00 00 00
	00 02 00 00 00	 mov	 DWORD PTR _do_rtzoom, 2
  00797	eb 0a		 jmp	 SHORT $LN30@MainWndPro
$LN29@MainWndPro:

; 4581 :          else
; 4582 :             allow_mode_change = 0;     // else don't allow mode change while button is down

  00799	c7 05 00 00 00
	00 00 00 00 00	 mov	 DWORD PTR ?allow_mode_change@?1??MainWndProc@@9@9, 0
$LN30@MainWndPro:

; 4583 : 
; 4584 :          if (nav_mode == MODE_PAN)

  007a3	83 3d 00 00 00
	00 03		 cmp	 DWORD PTR _nav_mode, 3
  007aa	75 0c		 jne	 SHORT $LN31@MainWndPro

; 4585 :             SetCursor(hclosed_cursor); // set closed hand

  007ac	a1 00 00 00 00	 mov	 eax, DWORD PTR _hclosed_cursor
  007b1	50		 push	 eax
  007b2	ff 15 00 00 00
	00		 call	 DWORD PTR __imp__SetCursor@4
$LN31@MainWndPro:

; 4586 : 
; 4587 :          confine_mouse_cursor();       // also need to confine here, for realtime zoom

  007b8	e8 00 00 00 00	 call	 _confine_mouse_cursor

; 4588 :          return FALSE;

  007bd	33 c0		 xor	 eax, eax
  007bf	e9 4b 06 00 00	 jmp	 $LN1@MainWndPro
$LN32@MainWndPro:

; 4589 : 
; 4590 :       case WM_RBUTTONUP: // Zoom out
; 4591 : 
; 4592 :          mouse_x[1] = LOWORD(lParam);

  007c4	8b 45 14	 mov	 eax, DWORD PTR _lParam$[ebp]
  007c7	25 ff ff 00 00	 and	 eax, 65535		; 0000ffffH
  007cc	b9 04 00 00 00	 mov	 ecx, 4
  007d1	c1 e1 00	 shl	 ecx, 0
  007d4	0f b7 d0	 movzx	 edx, ax
  007d7	89 91 00 00 00
	00		 mov	 DWORD PTR _mouse_x[ecx], edx

; 4593 :          mouse_y[1] = HIWORD(lParam);

  007dd	8b 45 14	 mov	 eax, DWORD PTR _lParam$[ebp]
  007e0	c1 e8 10	 shr	 eax, 16			; 00000010H
  007e3	25 ff ff 00 00	 and	 eax, 65535		; 0000ffffH
  007e8	b9 04 00 00 00	 mov	 ecx, 4
  007ed	c1 e1 00	 shl	 ecx, 0
  007f0	0f b7 d0	 movzx	 edx, ax
  007f3	89 91 00 00 00
	00		 mov	 DWORD PTR _mouse_y[ecx], edx

; 4594 :          allow_mode_change = 1;  // allow mode change again after button released

  007f9	c7 05 00 00 00
	00 01 00 00 00	 mov	 DWORD PTR ?allow_mode_change@?1??MainWndProc@@9@9, 1

; 4595 : 
; 4596 :          // Zoom out from current point, and recenter
; 4597 :          if (nav_mode == MODE_ZOOM)

  00803	83 3d 00 00 00
	00 01		 cmp	 DWORD PTR _nav_mode, 1
  0080a	75 52		 jne	 SHORT $LN33@MainWndPro

; 4598 :          {
; 4599 :             update_re_im_mag(0, 0, mouse_x[0], mouse_y[0], mouse_x[1], mouse_y[1]);

  0080c	b8 04 00 00 00	 mov	 eax, 4
  00811	c1 e0 00	 shl	 eax, 0
  00814	8b 88 00 00 00
	00		 mov	 ecx, DWORD PTR _mouse_y[eax]
  0081a	51		 push	 ecx
  0081b	ba 04 00 00 00	 mov	 edx, 4
  00820	c1 e2 00	 shl	 edx, 0
  00823	8b 82 00 00 00
	00		 mov	 eax, DWORD PTR _mouse_x[edx]
  00829	50		 push	 eax
  0082a	b9 04 00 00 00	 mov	 ecx, 4
  0082f	6b d1 00	 imul	 edx, ecx, 0
  00832	8b 82 00 00 00
	00		 mov	 eax, DWORD PTR _mouse_y[edx]
  00838	50		 push	 eax
  00839	b9 04 00 00 00	 mov	 ecx, 4
  0083e	6b d1 00	 imul	 edx, ecx, 0
  00841	8b 82 00 00 00
	00		 mov	 eax, DWORD PTR _mouse_x[edx]
  00847	50		 push	 eax
  00848	6a 00		 push	 0
  0084a	6a 00		 push	 0
  0084c	e8 00 00 00 00	 call	 _update_re_im_mag
  00851	83 c4 18	 add	 esp, 24			; 00000018H

; 4600 :             do_man_calculate(1);

  00854	6a 01		 push	 1
  00856	e8 00 00 00 00	 call	 _do_man_calculate
  0085b	83 c4 04	 add	 esp, 4
$LN33@MainWndPro:

; 4601 :          }
; 4602 :          if (nav_mode != MODE_PAN)           // this implements zoom lock

  0085e	83 3d 00 00 00
	00 03		 cmp	 DWORD PTR _nav_mode, 3
  00865	74 14		 je	 SHORT $LN34@MainWndPro

; 4603 :             do_rtzoom = prev_do_rtzoom = 0;  // clear realtime zoom flag for do_zooming()

  00867	c7 05 00 00 00
	00 00 00 00 00	 mov	 DWORD PTR _prev_do_rtzoom, 0
  00871	a1 00 00 00 00	 mov	 eax, DWORD PTR _prev_do_rtzoom
  00876	a3 00 00 00 00	 mov	 DWORD PTR _do_rtzoom, eax
$LN34@MainWndPro:

; 4604 : 
; 4605 :          ClipCursor(NULL);                // release mouse cursor and capture

  0087b	6a 00		 push	 0
  0087d	ff 15 00 00 00
	00		 call	 DWORD PTR __imp__ClipCursor@4

; 4606 :          ReleaseCapture();

  00883	ff 15 00 00 00
	00		 call	 DWORD PTR __imp__ReleaseCapture@0

; 4607 :          return FALSE;

  00889	33 c0		 xor	 eax, eax
  0088b	e9 7f 05 00 00	 jmp	 $LN1@MainWndPro
$LN35@MainWndPro:

; 4608 : 
; 4609 :       case WM_MOUSEWHEEL: // Use mousewheel to adjust iterations. (Maybe palette too, if button down?)
; 4610 : 
; 4611 :          if (GET_WHEEL_DELTA_WPARAM(wParam) > 0)

  00890	8b 45 10	 mov	 eax, DWORD PTR _wParam$[ebp]
  00893	c1 e8 10	 shr	 eax, 16			; 00000010H
  00896	25 ff ff 00 00	 and	 eax, 65535		; 0000ffffH
  0089b	0f bf c8	 movsx	 ecx, ax
  0089e	85 c9		 test	 ecx, ecx
  008a0	7e 0e		 jle	 SHORT $LN36@MainWndPro

; 4612 :             update_iters(1, 0);

  008a2	6a 00		 push	 0
  008a4	6a 01		 push	 1
  008a6	e8 00 00 00 00	 call	 _update_iters
  008ab	83 c4 08	 add	 esp, 8
  008ae	eb 0c		 jmp	 SHORT $LN37@MainWndPro
$LN36@MainWndPro:

; 4613 :          else
; 4614 :             update_iters(0, 1);

  008b0	6a 01		 push	 1
  008b2	6a 00		 push	 0
  008b4	e8 00 00 00 00	 call	 _update_iters
  008b9	83 c4 08	 add	 esp, 8
$LN37@MainWndPro:

; 4615 :          SetDlgItemInt(hwnd_dialog, IDC_ITERS, m->max_iters, FALSE);

  008bc	6a 00		 push	 0
  008be	8b 85 78 ff ff
	ff		 mov	 eax, DWORD PTR _m$[ebp]
  008c4	8b 88 c0 8d 00
	00		 mov	 ecx, DWORD PTR [eax+36288]
  008ca	51		 push	 ecx
  008cb	68 fb 03 00 00	 push	 1019			; 000003fbH
  008d0	8b 15 00 00 00
	00		 mov	 edx, DWORD PTR _hwnd_dialog
  008d6	52		 push	 edx
  008d7	ff 15 00 00 00
	00		 call	 DWORD PTR __imp__SetDlgItemInt@16

; 4616 :          return FALSE;

  008dd	33 c0		 xor	 eax, eax
  008df	e9 2b 05 00 00	 jmp	 $LN1@MainWndPro
$LN38@MainWndPro:

; 4617 : 
; 4618 :       case WM_KEYDOWN:  // Go to pan mode while space is held down (if allowed)
; 4619 : 
; 4620 :          #define PREV_KEYDOWN (1 << 30)
; 4621 : 
; 4622 :          if (lParam & PREV_KEYDOWN) // aargh... ignore key autorepeats. Were wiping out prev_do_rtzoom.

  008e4	8b 45 14	 mov	 eax, DWORD PTR _lParam$[ebp]
  008e7	25 00 00 00 40	 and	 eax, 1073741824		; 40000000H
  008ec	74 0a		 je	 SHORT $LN39@MainWndPro

; 4623 :             return TRUE;

  008ee	b8 01 00 00 00	 mov	 eax, 1
  008f3	e9 17 05 00 00	 jmp	 $LN1@MainWndPro
$LN39@MainWndPro:

; 4624 : 
; 4625 :          if (allow_mode_change)

  008f8	83 3d 00 00 00
	00 00		 cmp	 DWORD PTR ?allow_mode_change@?1??MainWndProc@@9@9, 0
  008ff	0f 84 50 01 00
	00		 je	 $LN40@MainWndPro

; 4626 :          {
; 4627 :             if (wParam == 'Z') // toggle zoom mode

  00905	83 7d 10 5a	 cmp	 DWORD PTR _wParam$[ebp], 90 ; 0000005aH
  00909	0f 85 87 00 00
	00		 jne	 $LN41@MainWndPro

; 4628 :             {
; 4629 :                mag_zoom_cursor = (mag_zoom_cursor == mag_cursor) ? rtzoom_cursor : mag_cursor;

  0090f	a1 00 00 00 00	 mov	 eax, DWORD PTR _mag_zoom_cursor
  00914	3b 05 00 00 00
	00		 cmp	 eax, DWORD PTR _mag_cursor
  0091a	75 0e		 jne	 SHORT $LN75@MainWndPro
  0091c	8b 0d 00 00 00
	00		 mov	 ecx, DWORD PTR _rtzoom_cursor
  00922	89 8d 2c ff ff
	ff		 mov	 DWORD PTR tv388[ebp], ecx
  00928	eb 0c		 jmp	 SHORT $LN76@MainWndPro
$LN75@MainWndPro:
  0092a	8b 15 00 00 00
	00		 mov	 edx, DWORD PTR _mag_cursor
  00930	89 95 2c ff ff
	ff		 mov	 DWORD PTR tv388[ebp], edx
$LN76@MainWndPro:
  00936	8b 85 2c ff ff
	ff		 mov	 eax, DWORD PTR tv388[ebp]
  0093c	a3 00 00 00 00	 mov	 DWORD PTR _mag_zoom_cursor, eax

; 4630 :                nav_mode = prev_nav_mode = (mag_zoom_cursor == mag_cursor) ? MODE_ZOOM : MODE_RTZOOM;

  00941	a1 00 00 00 00	 mov	 eax, DWORD PTR _mag_zoom_cursor
  00946	3b 05 00 00 00
	00		 cmp	 eax, DWORD PTR _mag_cursor
  0094c	75 0c		 jne	 SHORT $LN77@MainWndPro
  0094e	c7 85 2c ff ff
	ff 01 00 00 00	 mov	 DWORD PTR tv390[ebp], 1
  00958	eb 0a		 jmp	 SHORT $LN78@MainWndPro
$LN77@MainWndPro:
  0095a	c7 85 2c ff ff
	ff 02 00 00 00	 mov	 DWORD PTR tv390[ebp], 2
$LN78@MainWndPro:
  00964	8b 8d 2c ff ff
	ff		 mov	 ecx, DWORD PTR tv390[ebp]
  0096a	89 0d 00 00 00
	00		 mov	 DWORD PTR ?prev_nav_mode@?1??MainWndProc@@9@9, ecx
  00970	8b 15 00 00 00
	00		 mov	 edx, DWORD PTR ?prev_nav_mode@?1??MainWndProc@@9@9
  00976	89 15 00 00 00
	00		 mov	 DWORD PTR _nav_mode, edx

; 4631 :                if (GetCursor() != arrow_cursor) // Change cursor only if released in client area (kluge)

  0097c	ff 15 00 00 00
	00		 call	 DWORD PTR __imp__GetCursor@0
  00982	3b 05 00 00 00
	00		 cmp	 eax, DWORD PTR _arrow_cursor
  00988	74 0c		 je	 SHORT $LN41@MainWndPro

; 4632 :                   SetCursor(mag_zoom_cursor);

  0098a	a1 00 00 00 00	 mov	 eax, DWORD PTR _mag_zoom_cursor
  0098f	50		 push	 eax
  00990	ff 15 00 00 00
	00		 call	 DWORD PTR __imp__SetCursor@4
$LN41@MainWndPro:

; 4633 :             }
; 4634 :             nav_mode = (wParam == VK_SPACE) ? MODE_PAN : prev_nav_mode;

  00996	83 7d 10 20	 cmp	 DWORD PTR _wParam$[ebp], 32 ; 00000020H
  0099a	75 0c		 jne	 SHORT $LN79@MainWndPro
  0099c	c7 85 2c ff ff
	ff 03 00 00 00	 mov	 DWORD PTR tv395[ebp], 3
  009a6	eb 0b		 jmp	 SHORT $LN80@MainWndPro
$LN79@MainWndPro:
  009a8	a1 00 00 00 00	 mov	 eax, DWORD PTR ?prev_nav_mode@?1??MainWndProc@@9@9
  009ad	89 85 2c ff ff
	ff		 mov	 DWORD PTR tv395[ebp], eax
$LN80@MainWndPro:
  009b3	8b 8d 2c ff ff
	ff		 mov	 ecx, DWORD PTR tv395[ebp]
  009b9	89 0d 00 00 00
	00		 mov	 DWORD PTR _nav_mode, ecx

; 4635 :             if (nav_mode == MODE_PAN)

  009bf	83 3d 00 00 00
	00 03		 cmp	 DWORD PTR _nav_mode, 3
  009c6	0f 85 89 00 00
	00		 jne	 $LN40@MainWndPro

; 4636 :             {
; 4637 :                mouse_x[0] = mouse_x[1];            // Reset mouse position for pan

  009cc	b8 04 00 00 00	 mov	 eax, 4
  009d1	c1 e0 00	 shl	 eax, 0
  009d4	b9 04 00 00 00	 mov	 ecx, 4
  009d9	6b d1 00	 imul	 edx, ecx, 0
  009dc	8b 80 00 00 00
	00		 mov	 eax, DWORD PTR _mouse_x[eax]
  009e2	89 82 00 00 00
	00		 mov	 DWORD PTR _mouse_x[edx], eax

; 4638 :                mouse_y[0] = mouse_y[1];

  009e8	b8 04 00 00 00	 mov	 eax, 4
  009ed	c1 e0 00	 shl	 eax, 0
  009f0	b9 04 00 00 00	 mov	 ecx, 4
  009f5	6b d1 00	 imul	 edx, ecx, 0
  009f8	8b 80 00 00 00
	00		 mov	 eax, DWORD PTR _mouse_y[eax]
  009fe	89 82 00 00 00
	00		 mov	 DWORD PTR _mouse_y[edx], eax

; 4639 :                prev_do_rtzoom = do_rtzoom;         // save realtime zoom state

  00a04	a1 00 00 00 00	 mov	 eax, DWORD PTR _do_rtzoom
  00a09	a3 00 00 00 00	 mov	 DWORD PTR _prev_do_rtzoom, eax

; 4640 :                do_rtzoom = 0;                      // stop any realtime zoom

  00a0e	c7 05 00 00 00
	00 00 00 00 00	 mov	 DWORD PTR _do_rtzoom, 0

; 4641 :                if (GetCursor() == mag_zoom_cursor) // Fix toggling between hand and arrow in non-client area (kluge)

  00a18	ff 15 00 00 00
	00		 call	 DWORD PTR __imp__GetCursor@0
  00a1e	3b 05 00 00 00
	00		 cmp	 eax, DWORD PTR _mag_zoom_cursor
  00a24	75 2f		 jne	 SHORT $LN40@MainWndPro

; 4642 :                   SetCursor(prev_do_rtzoom ? hclosed_cursor : hopen_cursor);

  00a26	83 3d 00 00 00
	00 00		 cmp	 DWORD PTR _prev_do_rtzoom, 0
  00a2d	74 0d		 je	 SHORT $LN81@MainWndPro
  00a2f	a1 00 00 00 00	 mov	 eax, DWORD PTR _hclosed_cursor
  00a34	89 85 2c ff ff
	ff		 mov	 DWORD PTR tv409[ebp], eax
  00a3a	eb 0c		 jmp	 SHORT $LN82@MainWndPro
$LN81@MainWndPro:
  00a3c	8b 0d 00 00 00
	00		 mov	 ecx, DWORD PTR _hopen_cursor
  00a42	89 8d 2c ff ff
	ff		 mov	 DWORD PTR tv409[ebp], ecx
$LN82@MainWndPro:
  00a48	8b 95 2c ff ff
	ff		 mov	 edx, DWORD PTR tv409[ebp]
  00a4e	52		 push	 edx
  00a4f	ff 15 00 00 00
	00		 call	 DWORD PTR __imp__SetCursor@4
$LN40@MainWndPro:

; 4643 :             }
; 4644 :          }
; 4645 : 
; 4646 :          // Handle the various hotkeys
; 4647 :          switch (wParam)

  00a55	8b 45 10	 mov	 eax, DWORD PTR _wParam$[ebp]
  00a58	89 85 2c ff ff
	ff		 mov	 DWORD PTR tv407[ebp], eax
  00a5e	8b 8d 2c ff ff
	ff		 mov	 ecx, DWORD PTR tv407[ebp]
  00a64	83 e9 1b	 sub	 ecx, 27			; 0000001bH
  00a67	89 8d 2c ff ff
	ff		 mov	 DWORD PTR tv407[ebp], ecx
  00a6d	83 bd 2c ff ff
	ff 35		 cmp	 DWORD PTR tv407[ebp], 53 ; 00000035H
  00a74	0f 87 f7 00 00
	00		 ja	 $LN4@MainWndPro
  00a7a	8b 95 2c ff ff
	ff		 mov	 edx, DWORD PTR tv407[ebp]
  00a80	0f b6 82 00 00
	00 00		 movzx	 eax, BYTE PTR $LN89@MainWndPro[edx]
  00a87	ff 24 85 00 00
	00 00		 jmp	 DWORD PTR $LN92@MainWndPro[eax*4]
$LN45@MainWndPro:

; 4648 :          {
; 4649 :             case 'C': // 'C' toggles the control dialog on and off. Allow to work in non-fullscreen mode too.
; 4650 :                update_dialog((status ^= STAT_DIALOG_HIDDEN) & STAT_DIALOG_HIDDEN, 0); // 0 = don't move

  00a8e	a1 00 00 00 00	 mov	 eax, DWORD PTR _status
  00a93	83 f0 10	 xor	 eax, 16			; 00000010H
  00a96	a3 00 00 00 00	 mov	 DWORD PTR _status, eax
  00a9b	6a 00		 push	 0
  00a9d	8b 0d 00 00 00
	00		 mov	 ecx, DWORD PTR _status
  00aa3	83 e1 10	 and	 ecx, 16			; 00000010H
  00aa6	51		 push	 ecx
  00aa7	e8 00 00 00 00	 call	 _update_dialog
  00aac	83 c4 08	 add	 esp, 8

; 4651 :                break;

  00aaf	e9 bd 00 00 00	 jmp	 $LN4@MainWndPro
$LN46@MainWndPro:

; 4652 :             case VK_ESCAPE: // ESC exits out of fullscreen mode but does not enter it.
; 4653 :                if (!(status & STAT_FULLSCREEN)) // deliberate fallthrough if fullscreen

  00ab4	a1 00 00 00 00	 mov	 eax, DWORD PTR _status
  00ab9	83 e0 04	 and	 eax, 4
  00abc	75 05		 jne	 SHORT $LN48@MainWndPro

; 4654 :                   break;

  00abe	e9 ae 00 00 00	 jmp	 $LN4@MainWndPro
$LN48@MainWndPro:

; 4655 :             case 'F': // 'F' both exits and enters fullscreen mode.
; 4656 :                SendMessage(hwnd_dialog, WM_COMMAND, ID_FULLSCREEN, 0);

  00ac3	6a 00		 push	 0
  00ac5	6a 0d		 push	 13			; 0000000dH
  00ac7	68 11 01 00 00	 push	 273			; 00000111H
  00acc	a1 00 00 00 00	 mov	 eax, DWORD PTR _hwnd_dialog
  00ad1	50		 push	 eax
  00ad2	ff 15 00 00 00
	00		 call	 DWORD PTR __imp__SendMessageA@16

; 4657 :                break;

  00ad8	e9 94 00 00 00	 jmp	 $LN4@MainWndPro
$LN49@MainWndPro:

; 4658 :             case 'N': // 'N', 'P', and 'H' do log next/previous and home buttons.
; 4659 :                SendMessage(hwnd_dialog, WM_COMMAND, ID_LOG_NEXT, 0);

  00add	6a 00		 push	 0
  00adf	6a 08		 push	 8
  00ae1	68 11 01 00 00	 push	 273			; 00000111H
  00ae6	a1 00 00 00 00	 mov	 eax, DWORD PTR _hwnd_dialog
  00aeb	50		 push	 eax
  00aec	ff 15 00 00 00
	00		 call	 DWORD PTR __imp__SendMessageA@16

; 4660 :                break;

  00af2	eb 7d		 jmp	 SHORT $LN4@MainWndPro
$LN50@MainWndPro:

; 4661 :             case 'P':
; 4662 :                SendMessage(hwnd_dialog, WM_COMMAND, ID_LOG_PREV, 0);

  00af4	6a 00		 push	 0
  00af6	6a 09		 push	 9
  00af8	68 11 01 00 00	 push	 273			; 00000111H
  00afd	a1 00 00 00 00	 mov	 eax, DWORD PTR _hwnd_dialog
  00b02	50		 push	 eax
  00b03	ff 15 00 00 00
	00		 call	 DWORD PTR __imp__SendMessageA@16

; 4663 :                break;

  00b09	eb 66		 jmp	 SHORT $LN4@MainWndPro
$LN51@MainWndPro:

; 4664 :             case 'H':
; 4665 :                SendMessage(hwnd_dialog, WM_COMMAND, ID_HOME, 0);

  00b0b	6a 00		 push	 0
  00b0d	6a 10		 push	 16			; 00000010H
  00b0f	68 11 01 00 00	 push	 273			; 00000111H
  00b14	a1 00 00 00 00	 mov	 eax, DWORD PTR _hwnd_dialog
  00b19	50		 push	 eax
  00b1a	ff 15 00 00 00
	00		 call	 DWORD PTR __imp__SendMessageA@16

; 4666 :                break;

  00b20	eb 4f		 jmp	 SHORT $LN4@MainWndPro
$LN52@MainWndPro:

; 4667 :             case 'L': // 'L' toggles palette lock. If locked, palettes in logfiles are ignored.
; 4668 :                status ^= STAT_PALETTE_LOCKED;

  00b22	a1 00 00 00 00	 mov	 eax, DWORD PTR _status
  00b27	83 f0 20	 xor	 eax, 32			; 00000020H
  00b2a	a3 00 00 00 00	 mov	 DWORD PTR _status, eax

; 4669 :                print_palette_status();

  00b2f	e8 00 00 00 00	 call	 _print_palette_status

; 4670 :                break;

  00b34	eb 3b		 jmp	 SHORT $LN4@MainWndPro
$LN53@MainWndPro:

; 4671 :             case 'I': // 'I' toggles palette inversion.
; 4672 :                m->pal_xor ^= 0xFFFFFF;

  00b36	8b 85 78 ff ff
	ff		 mov	 eax, DWORD PTR _m$[ebp]
  00b3c	8b 88 fc 8d 00
	00		 mov	 ecx, DWORD PTR [eax+36348]
  00b42	81 f1 ff ff ff
	00		 xor	 ecx, 16777215		; 00ffffffH
  00b48	8b 95 78 ff ff
	ff		 mov	 edx, DWORD PTR _m$[ebp]
  00b4e	89 8a fc 8d 00
	00		 mov	 DWORD PTR [edx+36348], ecx

; 4673 :                SendMessage(hwnd_dialog, WM_COMMAND, MAKELONG(IDC_PALETTE, CBN_SELCHANGE), 0);

  00b54	6a 00		 push	 0
  00b56	68 03 04 01 00	 push	 66563			; 00010403H
  00b5b	68 11 01 00 00	 push	 273			; 00000111H
  00b60	a1 00 00 00 00	 mov	 eax, DWORD PTR _hwnd_dialog
  00b65	50		 push	 eax
  00b66	ff 15 00 00 00
	00		 call	 DWORD PTR __imp__SendMessageA@16

; 4674 :                print_palette_status();

  00b6c	e8 00 00 00 00	 call	 _print_palette_status
$LN4@MainWndPro:

; 4675 :                break;
; 4676 :          }
; 4677 :          return TRUE;

  00b71	b8 01 00 00 00	 mov	 eax, 1
  00b76	e9 94 02 00 00	 jmp	 $LN1@MainWndPro
$LN54@MainWndPro:

; 4678 : 
; 4679 :       case WM_HELP: // F1 shows help
; 4680 :          SendMessage(hwnd_dialog, WM_COMMAND, ID_HELP_BUTTON, 0);

  00b7b	6a 00		 push	 0
  00b7d	68 1c 04 00 00	 push	 1052			; 0000041cH
  00b82	68 11 01 00 00	 push	 273			; 00000111H
  00b87	a1 00 00 00 00	 mov	 eax, DWORD PTR _hwnd_dialog
  00b8c	50		 push	 eax
  00b8d	ff 15 00 00 00
	00		 call	 DWORD PTR __imp__SendMessageA@16

; 4681 :          return TRUE;

  00b93	b8 01 00 00 00	 mov	 eax, 1
  00b98	e9 72 02 00 00	 jmp	 $LN1@MainWndPro
$LN55@MainWndPro:

; 4682 : 
; 4683 :       case WM_KEYUP: // Go back to zoom mode if space released, if allowed.
; 4684 : 
; 4685 :          if (nav_mode == MODE_PAN)

  00b9d	83 3d 00 00 00
	00 03		 cmp	 DWORD PTR _nav_mode, 3
  00ba4	75 43		 jne	 SHORT $LN56@MainWndPro

; 4686 :             if (allow_mode_change)

  00ba6	83 3d 00 00 00
	00 00		 cmp	 DWORD PTR ?allow_mode_change@?1??MainWndProc@@9@9, 0
  00bad	74 30		 je	 SHORT $LN57@MainWndPro

; 4687 :             {
; 4688 :                if (GetCursor() != arrow_cursor) // Change cursor only if space released in client area (kluge)

  00baf	ff 15 00 00 00
	00		 call	 DWORD PTR __imp__GetCursor@0
  00bb5	3b 05 00 00 00
	00		 cmp	 eax, DWORD PTR _arrow_cursor
  00bbb	74 0c		 je	 SHORT $LN59@MainWndPro

; 4689 :                   SetCursor(mag_zoom_cursor);

  00bbd	a1 00 00 00 00	 mov	 eax, DWORD PTR _mag_zoom_cursor
  00bc2	50		 push	 eax
  00bc3	ff 15 00 00 00
	00		 call	 DWORD PTR __imp__SetCursor@4
$LN59@MainWndPro:

; 4690 :                nav_mode = prev_nav_mode;        // Restore old nav mode and

  00bc9	a1 00 00 00 00	 mov	 eax, DWORD PTR ?prev_nav_mode@?1??MainWndProc@@9@9
  00bce	a3 00 00 00 00	 mov	 DWORD PTR _nav_mode, eax

; 4691 :                do_rtzoom = prev_do_rtzoom;      // zooming status

  00bd3	a1 00 00 00 00	 mov	 eax, DWORD PTR _prev_do_rtzoom
  00bd8	a3 00 00 00 00	 mov	 DWORD PTR _do_rtzoom, eax

; 4692 :             }

  00bdd	eb 0a		 jmp	 SHORT $LN56@MainWndPro
$LN57@MainWndPro:

; 4693 :             else
; 4694 :                zoom_mode_pending = 1;  // Else pending: do as soon as mouse released

  00bdf	c7 05 00 00 00
	00 01 00 00 00	 mov	 DWORD PTR ?zoom_mode_pending@?1??MainWndProc@@9@9, 1
$LN56@MainWndPro:

; 4695 :          return TRUE;

  00be9	b8 01 00 00 00	 mov	 eax, 1
  00bee	e9 1c 02 00 00	 jmp	 $LN1@MainWndPro
$LN60@MainWndPro:

; 4696 : 
; 4697 :       case WM_SETCURSOR: // We get this message whenever the cursor moves in this window.
; 4698 : 
; 4699 :          // Set cursor (hand or zoom) based on nav mode. Also set keyboard focus to this
; 4700 :          // window for key detection. Eliminates need to click window first to set focus
; 4701 :          SetFocus(hwnd);

  00bf3	8b 45 08	 mov	 eax, DWORD PTR _hwnd$[ebp]
  00bf6	50		 push	 eax
  00bf7	ff 15 00 00 00
	00		 call	 DWORD PTR __imp__SetFocus@4

; 4702 :          if (LOWORD(lParam) == HTCLIENT) // only set zoom/hand cursor in client area

  00bfd	8b 45 14	 mov	 eax, DWORD PTR _lParam$[ebp]
  00c00	25 ff ff 00 00	 and	 eax, 65535		; 0000ffffH
  00c05	0f b7 c8	 movzx	 ecx, ax
  00c08	83 f9 01	 cmp	 ecx, 1
  00c0b	75 39		 jne	 SHORT $LN61@MainWndPro

; 4703 :          {
; 4704 :             SetCursor(nav_mode == MODE_PAN ? hopen_cursor : mag_zoom_cursor);

  00c0d	83 3d 00 00 00
	00 03		 cmp	 DWORD PTR _nav_mode, 3
  00c14	75 0d		 jne	 SHORT $LN83@MainWndPro
  00c16	a1 00 00 00 00	 mov	 eax, DWORD PTR _hopen_cursor
  00c1b	89 85 2c ff ff
	ff		 mov	 DWORD PTR tv459[ebp], eax
  00c21	eb 0c		 jmp	 SHORT $LN84@MainWndPro
$LN83@MainWndPro:
  00c23	8b 0d 00 00 00
	00		 mov	 ecx, DWORD PTR _mag_zoom_cursor
  00c29	89 8d 2c ff ff
	ff		 mov	 DWORD PTR tv459[ebp], ecx
$LN84@MainWndPro:
  00c2f	8b 95 2c ff ff
	ff		 mov	 edx, DWORD PTR tv459[ebp]
  00c35	52		 push	 edx
  00c36	ff 15 00 00 00
	00		 call	 DWORD PTR __imp__SetCursor@4

; 4705 :             return TRUE;

  00c3c	b8 01 00 00 00	 mov	 eax, 1
  00c41	e9 c9 01 00 00	 jmp	 $LN1@MainWndPro
$LN61@MainWndPro:

; 4706 :          }
; 4707 :          break; // let system set cursor outside client area (resize, arrow, etc)

  00c46	e9 ae 01 00 00	 jmp	 $LN2@MainWndPro
$LN62@MainWndPro:

; 4708 : 
; 4709 :       // This message comes after the user finishes a drag or movement, but, annoyingly, not
; 4710 :       // after a maximize or restore. There's some extra code to handle those in WM_WINDOWPOSCHANGED
; 4711 : 
; 4712 :       case WM_EXITSIZEMOVE:
; 4713 : 
; 4714 :          if (prev_sizing)                                         // if previous resize/move was a resize,

  00c4b	83 3d 00 00 00
	00 00		 cmp	 DWORD PTR ?prev_sizing@?1??MainWndProc@@9@9, 0
  00c52	74 17		 je	 SHORT $LN63@MainWndPro

; 4715 :             if (cfg_settings.options.val & OPT_RECALC_ON_RESIZE)  // recalculate image if enabled

  00c54	a1 a4 00 00 00	 mov	 eax, DWORD PTR _cfg_settings+164
  00c59	83 e0 01	 and	 eax, 1
  00c5c	74 0d		 je	 SHORT $LN63@MainWndPro

; 4716 :             {
; 4717 :                // If we recalculate here, a partial bad-state window appears while
; 4718 :                // the calculation is going on. Recalculate in main loop instead.
; 4719 :                status |= STAT_RECALC_IMMEDIATELY;

  00c5e	a1 00 00 00 00	 mov	 eax, DWORD PTR _status
  00c63	83 c8 08	 or	 eax, 8
  00c66	a3 00 00 00 00	 mov	 DWORD PTR _status, eax
$LN63@MainWndPro:

; 4720 :             }
; 4721 :          return FALSE;

  00c6b	33 c0		 xor	 eax, eax
  00c6d	e9 9d 01 00 00	 jmp	 $LN1@MainWndPro
$LN65@MainWndPro:

; 4722 : 
; 4723 :       // Called on window sizing or changing position. Pretty wasteful to call create_bitmap
; 4724 :       // (which frees and reallocates all arrays with every pixel of movement) here.
; 4725 :       // Memory fragmentation? Changing this currently causes some issues. Maybe fix later.
; 4726 : 
; 4727 :       // Seems like we always get this at startup before the paint message.
; 4728 : 
; 4729 :       case WM_WINDOWPOSCHANGED:
; 4730 :          GetWindowPlacement(hwnd, &wp);

  00c72	8d 85 7c ff ff
	ff		 lea	 eax, DWORD PTR _wp$[ebp]
  00c78	50		 push	 eax
  00c79	8b 4d 08	 mov	 ecx, DWORD PTR _hwnd$[ebp]
  00c7c	51		 push	 ecx
  00c7d	ff 15 00 00 00
	00		 call	 DWORD PTR __imp__GetWindowPlacement@8

; 4731 :          if (wp.showCmd != SW_SHOWMINIMIZED) // only do this if not minimizing window

  00c83	83 7d 84 02	 cmp	 DWORD PTR _wp$[ebp+8], 2
  00c87	0f 84 55 01 00
	00		 je	 $LN66@MainWndPro

; 4732 :          {
; 4733 :             // Move dialog box along with main window
; 4734 :             update_dialog(status & STAT_DIALOG_HIDDEN, 1); // 1 = move

  00c8d	6a 01		 push	 1
  00c8f	a1 00 00 00 00	 mov	 eax, DWORD PTR _status
  00c94	83 e0 10	 and	 eax, 16			; 00000010H
  00c97	50		 push	 eax
  00c98	e8 00 00 00 00	 call	 _update_dialog
  00c9d	83 c4 08	 add	 esp, 8

; 4735 : 
; 4736 :             GetClientRect(hwnd, &rc);        // calculate new mandelbrot image size

  00ca0	8d 45 f0	 lea	 eax, DWORD PTR _rc$[ebp]
  00ca3	50		 push	 eax
  00ca4	8b 4d 08	 mov	 ecx, DWORD PTR _hwnd$[ebp]
  00ca7	51		 push	 ecx
  00ca8	ff 15 00 00 00
	00		 call	 DWORD PTR __imp__GetClientRect@8

; 4737 :             m->xsize = rc.right - rc.left;

  00cae	8b 45 f8	 mov	 eax, DWORD PTR _rc$[ebp+8]
  00cb1	2b 45 f0	 sub	 eax, DWORD PTR _rc$[ebp]
  00cb4	8b 8d 78 ff ff
	ff		 mov	 ecx, DWORD PTR _m$[ebp]
  00cba	89 81 88 8d 00
	00		 mov	 DWORD PTR [ecx+36232], eax

; 4738 :             m->ysize = rc.bottom - rc.top;

  00cc0	8b 45 fc	 mov	 eax, DWORD PTR _rc$[ebp+12]
  00cc3	2b 45 f4	 sub	 eax, DWORD PTR _rc$[ebp+4]
  00cc6	8b 8d 78 ff ff
	ff		 mov	 ecx, DWORD PTR _m$[ebp]
  00ccc	89 81 8c 8d 00
	00		 mov	 DWORD PTR [ecx+36236], eax

; 4739 : 
; 4740 :             if (m->xsize < MIN_SIZE)        // clip min size

  00cd2	8b 85 78 ff ff
	ff		 mov	 eax, DWORD PTR _m$[ebp]
  00cd8	83 b8 88 8d 00
	00 04		 cmp	 DWORD PTR [eax+36232], 4
  00cdf	7d 10		 jge	 SHORT $LN67@MainWndPro

; 4741 :                m->xsize = MIN_SIZE;

  00ce1	8b 85 78 ff ff
	ff		 mov	 eax, DWORD PTR _m$[ebp]
  00ce7	c7 80 88 8d 00
	00 04 00 00 00	 mov	 DWORD PTR [eax+36232], 4
$LN67@MainWndPro:

; 4742 :             if (m->ysize < MIN_SIZE)

  00cf1	8b 85 78 ff ff
	ff		 mov	 eax, DWORD PTR _m$[ebp]
  00cf7	83 b8 8c 8d 00
	00 04		 cmp	 DWORD PTR [eax+36236], 4
  00cfe	7d 10		 jge	 SHORT $LN68@MainWndPro

; 4743 :                m->ysize = MIN_SIZE;

  00d00	8b 85 78 ff ff
	ff		 mov	 eax, DWORD PTR _m$[ebp]
  00d06	c7 80 8c 8d 00
	00 04 00 00 00	 mov	 DWORD PTR [eax+36236], 4
$LN68@MainWndPro:

; 4744 : 
; 4745 :             // Create arrays and bitmaps used in calculations (will deallocate/resize as needed-
; 4746 :             // returns > 0 if resized). Doesn't do anything if size didn't change.
; 4747 :             // Set prev_sizing so WM_EXITSIZEMOVE can know whether previous op was a resize.
; 4748 : 
; 4749 :             if (prev_sizing = create_bitmap(m->xsize, m->ysize))   // rename this- now does a lot more than create a bitmap

  00d10	8b 85 78 ff ff
	ff		 mov	 eax, DWORD PTR _m$[ebp]
  00d16	8b 88 8c 8d 00
	00		 mov	 ecx, DWORD PTR [eax+36236]
  00d1c	51		 push	 ecx
  00d1d	8b 95 78 ff ff
	ff		 mov	 edx, DWORD PTR _m$[ebp]
  00d23	8b 82 88 8d 00
	00		 mov	 eax, DWORD PTR [edx+36232]
  00d29	50		 push	 eax
  00d2a	e8 00 00 00 00	 call	 _create_bitmap
  00d2f	83 c4 08	 add	 esp, 8
  00d32	a3 00 00 00 00	 mov	 DWORD PTR ?prev_sizing@?1??MainWndProc@@9@9, eax
  00d37	83 3d 00 00 00
	00 00		 cmp	 DWORD PTR ?prev_sizing@?1??MainWndProc@@9@9, 0
  00d3e	74 59		 je	 SHORT $LN69@MainWndPro

; 4750 :             {
; 4751 :                SetWindowText(hwnd_info, get_image_info(0));          // update size info if resized

  00d40	6a 00		 push	 0
  00d42	e8 00 00 00 00	 call	 _get_image_info
  00d47	83 c4 04	 add	 esp, 4
  00d4a	50		 push	 eax
  00d4b	a1 00 00 00 00	 mov	 eax, DWORD PTR _hwnd_info
  00d50	50		 push	 eax
  00d51	ff 15 00 00 00
	00		 call	 DWORD PTR __imp__SetWindowTextA@8

; 4752 :                SetDlgItemInt(hwnd_dialog, IDC_SAVE_XSIZE, m->xsize, FALSE); // update sizes for image save

  00d57	6a 00		 push	 0
  00d59	8b 85 78 ff ff
	ff		 mov	 eax, DWORD PTR _m$[ebp]
  00d5f	8b 88 88 8d 00
	00		 mov	 ecx, DWORD PTR [eax+36232]
  00d65	51		 push	 ecx
  00d66	68 2c 04 00 00	 push	 1068			; 0000042cH
  00d6b	8b 15 00 00 00
	00		 mov	 edx, DWORD PTR _hwnd_dialog
  00d71	52		 push	 edx
  00d72	ff 15 00 00 00
	00		 call	 DWORD PTR __imp__SetDlgItemInt@16

; 4753 :                SetDlgItemInt(hwnd_dialog, IDC_SAVE_YSIZE, m->ysize, FALSE);

  00d78	6a 00		 push	 0
  00d7a	8b 85 78 ff ff
	ff		 mov	 eax, DWORD PTR _m$[ebp]
  00d80	8b 88 8c 8d 00
	00		 mov	 ecx, DWORD PTR [eax+36236]
  00d86	51		 push	 ecx
  00d87	68 2d 04 00 00	 push	 1069			; 0000042dH
  00d8c	8b 15 00 00 00
	00		 mov	 edx, DWORD PTR _hwnd_dialog
  00d92	52		 push	 edx
  00d93	ff 15 00 00 00
	00		 call	 DWORD PTR __imp__SetDlgItemInt@16
$LN69@MainWndPro:

; 4754 :             }
; 4755 : 
; 4756 :             // Send a WM_EXITSIZEMOVE message if window was maximized/restored
; 4757 :             if (wp.showCmd != prev_max_restore)

  00d99	8b 45 84	 mov	 eax, DWORD PTR _wp$[ebp+8]
  00d9c	3b 05 00 00 00
	00		 cmp	 eax, DWORD PTR ?prev_max_restore@?1??MainWndProc@@9@9
  00da2	74 1b		 je	 SHORT $LN70@MainWndPro

; 4758 :             {
; 4759 :                SendMessage(hwnd, WM_EXITSIZEMOVE, 0, 0);

  00da4	6a 00		 push	 0
  00da6	6a 00		 push	 0
  00da8	68 32 02 00 00	 push	 562			; 00000232H
  00dad	8b 45 08	 mov	 eax, DWORD PTR _hwnd$[ebp]
  00db0	50		 push	 eax
  00db1	ff 15 00 00 00
	00		 call	 DWORD PTR __imp__SendMessageA@16

; 4760 :                prev_max_restore = wp.showCmd;

  00db7	8b 45 84	 mov	 eax, DWORD PTR _wp$[ebp+8]
  00dba	a3 00 00 00 00	 mov	 DWORD PTR ?prev_max_restore@?1??MainWndProc@@9@9, eax
$LN70@MainWndPro:

; 4761 :             }
; 4762 :             // Save main window rect for fullscreen mode if not maximized and not already in fullscreen
; 4763 :             if (wp.showCmd != SW_SHOWMAXIMIZED && !(status & STAT_FULLSCREEN))

  00dbf	83 7d 84 03	 cmp	 DWORD PTR _wp$[ebp+8], 3
  00dc3	74 19		 je	 SHORT $LN71@MainWndPro
  00dc5	a1 00 00 00 00	 mov	 eax, DWORD PTR _status
  00dca	83 e0 04	 and	 eax, 4
  00dcd	75 0f		 jne	 SHORT $LN71@MainWndPro

; 4764 :                GetWindowRect(hwnd, &main_rect);

  00dcf	68 00 00 00 00	 push	 OFFSET _main_rect
  00dd4	8b 45 08	 mov	 eax, DWORD PTR _hwnd$[ebp]
  00dd7	50		 push	 eax
  00dd8	ff 15 00 00 00
	00		 call	 DWORD PTR __imp__GetWindowRect@8
$LN71@MainWndPro:

; 4765 :             return FALSE;

  00dde	33 c0		 xor	 eax, eax
  00de0	eb 2d		 jmp	 SHORT $LN1@MainWndPro
$LN66@MainWndPro:

; 4766 :          }
; 4767 :          return TRUE;

  00de2	b8 01 00 00 00	 mov	 eax, 1
  00de7	eb 26		 jmp	 SHORT $LN1@MainWndPro
$LN72@MainWndPro:

; 4768 : 
; 4769 :       case WM_COMMAND:
; 4770 :          return FALSE;

  00de9	33 c0		 xor	 eax, eax
  00deb	eb 22		 jmp	 SHORT $LN1@MainWndPro
$LN73@MainWndPro:

; 4771 : 
; 4772 :       case WM_DESTROY:  // The window is being destroyed, close the application
; 4773 :          PostQuitMessage(0);

  00ded	6a 00		 push	 0
  00def	ff 15 00 00 00
	00		 call	 DWORD PTR __imp__PostQuitMessage@4

; 4774 :          return FALSE;

  00df5	33 c0		 xor	 eax, eax
  00df7	eb 16		 jmp	 SHORT $LN1@MainWndPro
$LN2@MainWndPro:

; 4775 :    }
; 4776 :    // If we don't handle a message completely we hand it to the system-provided default window function.
; 4777 :    return DefWindowProc(hwnd, nMsg, wParam, lParam);

  00df9	8b 45 14	 mov	 eax, DWORD PTR _lParam$[ebp]
  00dfc	50		 push	 eax
  00dfd	8b 4d 10	 mov	 ecx, DWORD PTR _wParam$[ebp]
  00e00	51		 push	 ecx
  00e01	8b 55 0c	 mov	 edx, DWORD PTR _nMsg$[ebp]
  00e04	52		 push	 edx
  00e05	8b 45 08	 mov	 eax, DWORD PTR _hwnd$[ebp]
  00e08	50		 push	 eax
  00e09	ff 15 00 00 00
	00		 call	 DWORD PTR __imp__DefWindowProcA@16
$LN1@MainWndPro:

; 4778 : }

  00e0f	5f		 pop	 edi
  00e10	5e		 pop	 esi
  00e11	5b		 pop	 ebx
  00e12	8b e5		 mov	 esp, ebp
  00e14	5d		 pop	 ebp
  00e15	c2 10 00	 ret	 16			; 00000010H
$LN90@MainWndPro:
  00e18	00 00 00 00	 DD	 $LN6@MainWndPro
  00e1c	00 00 00 00	 DD	 $LN73@MainWndPro
  00e20	00 00 00 00	 DD	 $LN7@MainWndPro
  00e24	00 00 00 00	 DD	 $LN60@MainWndPro
  00e28	00 00 00 00	 DD	 $LN2@MainWndPro
$LN87@MainWndPro:
  00e2c	00		 DB	 0
  00e2d	01		 DB	 1
  00e2e	04		 DB	 4
  00e2f	04		 DB	 4
  00e30	04		 DB	 4
  00e31	04		 DB	 4
  00e32	04		 DB	 4
  00e33	04		 DB	 4
  00e34	04		 DB	 4
  00e35	04		 DB	 4
  00e36	04		 DB	 4
  00e37	04		 DB	 4
  00e38	04		 DB	 4
  00e39	04		 DB	 4
  00e3a	02		 DB	 2
  00e3b	04		 DB	 4
  00e3c	04		 DB	 4
  00e3d	04		 DB	 4
  00e3e	04		 DB	 4
  00e3f	04		 DB	 4
  00e40	04		 DB	 4
  00e41	04		 DB	 4
  00e42	04		 DB	 4
  00e43	04		 DB	 4
  00e44	04		 DB	 4
  00e45	04		 DB	 4
  00e46	04		 DB	 4
  00e47	04		 DB	 4
  00e48	04		 DB	 4
  00e49	04		 DB	 4
  00e4a	04		 DB	 4
  00e4b	03		 DB	 3
$LN91@MainWndPro:
  00e4c	00 00 00 00	 DD	 $LN21@MainWndPro
  00e50	00 00 00 00	 DD	 $LN10@MainWndPro
  00e54	00 00 00 00	 DD	 $LN14@MainWndPro
  00e58	00 00 00 00	 DD	 $LN28@MainWndPro
  00e5c	00 00 00 00	 DD	 $LN32@MainWndPro
  00e60	00 00 00 00	 DD	 $LN35@MainWndPro
  00e64	00 00 00 00	 DD	 $LN62@MainWndPro
  00e68	00 00 00 00	 DD	 $LN2@MainWndPro
$LN88@MainWndPro:
  00e6c	00		 DB	 0
  00e6d	01		 DB	 1
  00e6e	02		 DB	 2
  00e6f	07		 DB	 7
  00e70	03		 DB	 3
  00e71	04		 DB	 4
  00e72	07		 DB	 7
  00e73	07		 DB	 7
  00e74	07		 DB	 7
  00e75	07		 DB	 7
  00e76	05		 DB	 5
  00e77	07		 DB	 7
  00e78	07		 DB	 7
  00e79	07		 DB	 7
  00e7a	07		 DB	 7
  00e7b	07		 DB	 7
  00e7c	07		 DB	 7
  00e7d	07		 DB	 7
  00e7e	07		 DB	 7
  00e7f	07		 DB	 7
  00e80	07		 DB	 7
  00e81	07		 DB	 7
  00e82	07		 DB	 7
  00e83	07		 DB	 7
  00e84	07		 DB	 7
  00e85	07		 DB	 7
  00e86	07		 DB	 7
  00e87	07		 DB	 7
  00e88	07		 DB	 7
  00e89	07		 DB	 7
  00e8a	07		 DB	 7
  00e8b	07		 DB	 7
  00e8c	07		 DB	 7
  00e8d	07		 DB	 7
  00e8e	07		 DB	 7
  00e8f	07		 DB	 7
  00e90	07		 DB	 7
  00e91	07		 DB	 7
  00e92	07		 DB	 7
  00e93	07		 DB	 7
  00e94	07		 DB	 7
  00e95	07		 DB	 7
  00e96	07		 DB	 7
  00e97	07		 DB	 7
  00e98	07		 DB	 7
  00e99	07		 DB	 7
  00e9a	07		 DB	 7
  00e9b	07		 DB	 7
  00e9c	07		 DB	 7
  00e9d	07		 DB	 7
  00e9e	06		 DB	 6
  00e9f	90		 npad	 1
$LN92@MainWndPro:
  00ea0	00 00 00 00	 DD	 $LN46@MainWndPro
  00ea4	00 00 00 00	 DD	 $LN45@MainWndPro
  00ea8	00 00 00 00	 DD	 $LN48@MainWndPro
  00eac	00 00 00 00	 DD	 $LN51@MainWndPro
  00eb0	00 00 00 00	 DD	 $LN53@MainWndPro
  00eb4	00 00 00 00	 DD	 $LN52@MainWndPro
  00eb8	00 00 00 00	 DD	 $LN49@MainWndPro
  00ebc	00 00 00 00	 DD	 $LN50@MainWndPro
  00ec0	00 00 00 00	 DD	 $LN4@MainWndPro
$LN89@MainWndPro:
  00ec4	00		 DB	 0
  00ec5	08		 DB	 8
  00ec6	08		 DB	 8
  00ec7	08		 DB	 8
  00ec8	08		 DB	 8
  00ec9	08		 DB	 8
  00eca	08		 DB	 8
  00ecb	08		 DB	 8
  00ecc	08		 DB	 8
  00ecd	08		 DB	 8
  00ece	08		 DB	 8
  00ecf	08		 DB	 8
  00ed0	08		 DB	 8
  00ed1	08		 DB	 8
  00ed2	08		 DB	 8
  00ed3	08		 DB	 8
  00ed4	08		 DB	 8
  00ed5	08		 DB	 8
  00ed6	08		 DB	 8
  00ed7	08		 DB	 8
  00ed8	08		 DB	 8
  00ed9	08		 DB	 8
  00eda	08		 DB	 8
  00edb	08		 DB	 8
  00edc	08		 DB	 8
  00edd	08		 DB	 8
  00ede	08		 DB	 8
  00edf	08		 DB	 8
  00ee0	08		 DB	 8
  00ee1	08		 DB	 8
  00ee2	08		 DB	 8
  00ee3	08		 DB	 8
  00ee4	08		 DB	 8
  00ee5	08		 DB	 8
  00ee6	08		 DB	 8
  00ee7	08		 DB	 8
  00ee8	08		 DB	 8
  00ee9	08		 DB	 8
  00eea	08		 DB	 8
  00eeb	08		 DB	 8
  00eec	01		 DB	 1
  00eed	08		 DB	 8
  00eee	08		 DB	 8
  00eef	02		 DB	 2
  00ef0	08		 DB	 8
  00ef1	03		 DB	 3
  00ef2	04		 DB	 4
  00ef3	08		 DB	 8
  00ef4	08		 DB	 8
  00ef5	05		 DB	 5
  00ef6	08		 DB	 8
  00ef7	06		 DB	 6
  00ef8	08		 DB	 8
  00ef9	07		 DB	 7
_MainWndProc@16 ENDP
_TEXT	ENDS
; Function compile flags: /Odtp /ZI
; File d:\stanley\desktop\quickman_v110\source\quickman.c
;	COMDAT _confine_mouse_cursor
_TEXT	SEGMENT
_ptClientLR$ = -32					; size = 8
_ptClientUL$ = -24					; size = 8
_rc$ = -16						; size = 16
_confine_mouse_cursor PROC				; COMDAT

; 4384 : {

  00000	55		 push	 ebp
  00001	8b ec		 mov	 ebp, esp
  00003	83 ec 60	 sub	 esp, 96			; 00000060H
  00006	53		 push	 ebx
  00007	56		 push	 esi
  00008	57		 push	 edi

; 4385 :    RECT rc;             // working rectangle
; 4386 :    POINT ptClientUL;    // client upper left corner
; 4387 :    POINT ptClientLR;    // client lower right corner
; 4388 : 
; 4389 :    GetClientRect(hwnd_main, &rc);  // Retrieve the screen coordinates of the client area,

  00009	8d 45 f0	 lea	 eax, DWORD PTR _rc$[ebp]
  0000c	50		 push	 eax
  0000d	8b 0d 00 00 00
	00		 mov	 ecx, DWORD PTR _hwnd_main
  00013	51		 push	 ecx
  00014	ff 15 00 00 00
	00		 call	 DWORD PTR __imp__GetClientRect@8

; 4390 :    ptClientUL.x = rc.left;         // and convert them into client coordinates.

  0001a	8b 45 f0	 mov	 eax, DWORD PTR _rc$[ebp]
  0001d	89 45 e8	 mov	 DWORD PTR _ptClientUL$[ebp], eax

; 4391 :    ptClientUL.y = rc.top;

  00020	8b 45 f4	 mov	 eax, DWORD PTR _rc$[ebp+4]
  00023	89 45 ec	 mov	 DWORD PTR _ptClientUL$[ebp+4], eax

; 4392 :    ptClientLR.x = rc.right + 1;             // Add one to the right and bottom sides, because the

  00026	8b 45 f8	 mov	 eax, DWORD PTR _rc$[ebp+8]
  00029	83 c0 01	 add	 eax, 1
  0002c	89 45 e0	 mov	 DWORD PTR _ptClientLR$[ebp], eax

; 4393 :    ptClientLR.y = rc.bottom + 1;            // coordinates retrieved by GetClientRect do not

  0002f	8b 45 fc	 mov	 eax, DWORD PTR _rc$[ebp+12]
  00032	83 c0 01	 add	 eax, 1
  00035	89 45 e4	 mov	 DWORD PTR _ptClientLR$[ebp+4], eax

; 4394 :    ClientToScreen(hwnd_main, &ptClientUL);  // include the far left and lowermost pixels.

  00038	8d 45 e8	 lea	 eax, DWORD PTR _ptClientUL$[ebp]
  0003b	50		 push	 eax
  0003c	8b 0d 00 00 00
	00		 mov	 ecx, DWORD PTR _hwnd_main
  00042	51		 push	 ecx
  00043	ff 15 00 00 00
	00		 call	 DWORD PTR __imp__ClientToScreen@8

; 4395 :    ClientToScreen(hwnd_main, &ptClientLR);

  00049	8d 45 e0	 lea	 eax, DWORD PTR _ptClientLR$[ebp]
  0004c	50		 push	 eax
  0004d	8b 0d 00 00 00
	00		 mov	 ecx, DWORD PTR _hwnd_main
  00053	51		 push	 ecx
  00054	ff 15 00 00 00
	00		 call	 DWORD PTR __imp__ClientToScreen@8

; 4396 : 
; 4397 :    SetRect(&rc, ptClientUL.x, ptClientUL.y, // Copy the client coordinates of the client area

  0005a	8b 45 e4	 mov	 eax, DWORD PTR _ptClientLR$[ebp+4]
  0005d	50		 push	 eax
  0005e	8b 4d e0	 mov	 ecx, DWORD PTR _ptClientLR$[ebp]
  00061	51		 push	 ecx
  00062	8b 55 ec	 mov	 edx, DWORD PTR _ptClientUL$[ebp+4]
  00065	52		 push	 edx
  00066	8b 45 e8	 mov	 eax, DWORD PTR _ptClientUL$[ebp]
  00069	50		 push	 eax
  0006a	8d 4d f0	 lea	 ecx, DWORD PTR _rc$[ebp]
  0006d	51		 push	 ecx
  0006e	ff 15 00 00 00
	00		 call	 DWORD PTR __imp__SetRect@20

; 4398 :            ptClientLR.x, ptClientLR.y);     // to the rcClient structure.
; 4399 : 
; 4400 :    SetCapture(hwnd_main);  // capture mouse input

  00074	a1 00 00 00 00	 mov	 eax, DWORD PTR _hwnd_main
  00079	50		 push	 eax
  0007a	ff 15 00 00 00
	00		 call	 DWORD PTR __imp__SetCapture@4

; 4401 :    ClipCursor(&rc);        // confine the mouse cursor to the client area

  00080	8d 45 f0	 lea	 eax, DWORD PTR _rc$[ebp]
  00083	50		 push	 eax
  00084	ff 15 00 00 00
	00		 call	 DWORD PTR __imp__ClipCursor@4

; 4402 : }

  0008a	5f		 pop	 edi
  0008b	5e		 pop	 esi
  0008c	5b		 pop	 ebx
  0008d	8b e5		 mov	 esp, ebp
  0008f	5d		 pop	 ebp
  00090	c3		 ret	 0
_confine_mouse_cursor ENDP
_TEXT	ENDS
; Function compile flags: /Odtp /ZI
; File d:\stanley\desktop\quickman_v110\source\quickman.c
;	COMDAT _striped_blit
_TEXT	SEGMENT
_y_done$ = -20						; size = 4
_this_y$ = -16						; size = 4
_ysize$ = -12						; size = 4
_dest_yoffs$ = -8					; size = 4
_src_yoffs$ = -4					; size = 4
_ql$ = 8						; size = 4
_qr$ = 12						; size = 4
_hdc$ = 16						; size = 4
_hscreen_dc$ = 20					; size = 4
_striped_blit PROC					; COMDAT

; 4320 : {

  00000	55		 push	 ebp
  00001	8b ec		 mov	 ebp, esp
  00003	83 ec 54	 sub	 esp, 84			; 00000054H
  00006	53		 push	 ebx
  00007	56		 push	 esi
  00008	57		 push	 edi

; 4321 :    int src_yoffs, dest_yoffs, ysize, this_y, y_done;
; 4322 : 
; 4323 :    // Thickness of the stripes: the thinner the better, but thinner
; 4324 :    // stripes cause more overhead. 8 gives no measureable overhead on
; 4325 :    // the Athlon 4000+ system, but significant overhead on the Pentium
; 4326 :    // D 820 system. Probably hugely dependent on the video driver.
; 4327 : 
; 4328 :    // No artifacts visible with either 8 or 16 (except those that are present
; 4329 :    // with a full bitmap also- tearing, CPU cycle stealing by other applications,
; 4330 :    // and frame rate aliasing with the screen refresh rate).
; 4331 : 
; 4332 :    //#define STRIPE_THICKNESS 16 // this now comes from global config setting
; 4333 : 
; 4334 :    // Return if no data in these quadrants
; 4335 :    if (!(ql->status & QSTAT_DO_BLIT) && !(qr->status & QSTAT_DO_BLIT))

  00009	8b 45 08	 mov	 eax, DWORD PTR _ql$[ebp]
  0000c	8b 08		 mov	 ecx, DWORD PTR [eax]
  0000e	83 e1 01	 and	 ecx, 1
  00011	75 0f		 jne	 SHORT $LN5@striped_bl
  00013	8b 45 0c	 mov	 eax, DWORD PTR _qr$[ebp]
  00016	8b 08		 mov	 ecx, DWORD PTR [eax]
  00018	83 e1 01	 and	 ecx, 1
  0001b	75 05		 jne	 SHORT $LN5@striped_bl

; 4336 :       return;

  0001d	e9 2a 01 00 00	 jmp	 $LN1@striped_bl
$LN5@striped_bl:

; 4337 : 
; 4338 :    // The src_yoffs, dest_yoffs, and blit_ysize fields of the left and right
; 4339 :    // quadrants will always be the same.
; 4340 : 
; 4341 :    // Get from left quad if it has a blit rectangle, else get from right
; 4342 :    if (ql->status & QSTAT_DO_BLIT)

  00022	8b 45 08	 mov	 eax, DWORD PTR _ql$[ebp]
  00025	8b 08		 mov	 ecx, DWORD PTR [eax]
  00027	83 e1 01	 and	 ecx, 1
  0002a	74 1d		 je	 SHORT $LN6@striped_bl

; 4343 :    {
; 4344 :       src_yoffs = ql->src_yoffs;

  0002c	8b 45 08	 mov	 eax, DWORD PTR _ql$[ebp]
  0002f	8b 48 24	 mov	 ecx, DWORD PTR [eax+36]
  00032	89 4d fc	 mov	 DWORD PTR _src_yoffs$[ebp], ecx

; 4345 :       dest_yoffs = ql->dest_yoffs;

  00035	8b 45 08	 mov	 eax, DWORD PTR _ql$[ebp]
  00038	8b 48 2c	 mov	 ecx, DWORD PTR [eax+44]
  0003b	89 4d f8	 mov	 DWORD PTR _dest_yoffs$[ebp], ecx

; 4346 :       ysize = ql->blit_ysize;

  0003e	8b 45 08	 mov	 eax, DWORD PTR _ql$[ebp]
  00041	8b 48 34	 mov	 ecx, DWORD PTR [eax+52]
  00044	89 4d f4	 mov	 DWORD PTR _ysize$[ebp], ecx

; 4347 :    }

  00047	eb 1b		 jmp	 SHORT $LN7@striped_bl
$LN6@striped_bl:

; 4348 :    else
; 4349 :    {
; 4350 :       src_yoffs = qr->src_yoffs;

  00049	8b 45 0c	 mov	 eax, DWORD PTR _qr$[ebp]
  0004c	8b 48 24	 mov	 ecx, DWORD PTR [eax+36]
  0004f	89 4d fc	 mov	 DWORD PTR _src_yoffs$[ebp], ecx

; 4351 :       dest_yoffs = qr->dest_yoffs;

  00052	8b 45 0c	 mov	 eax, DWORD PTR _qr$[ebp]
  00055	8b 48 2c	 mov	 ecx, DWORD PTR [eax+44]
  00058	89 4d f8	 mov	 DWORD PTR _dest_yoffs$[ebp], ecx

; 4352 :       ysize = qr->blit_ysize;

  0005b	8b 45 0c	 mov	 eax, DWORD PTR _qr$[ebp]
  0005e	8b 48 34	 mov	 ecx, DWORD PTR [eax+52]
  00061	89 4d f4	 mov	 DWORD PTR _ysize$[ebp], ecx
$LN7@striped_bl:

; 4353 :    }
; 4354 : 
; 4355 :    this_y = cfg_settings.blit_stripe_thickness.val; // STRIPE_THICKNESS;

  00064	a1 cc 00 00 00	 mov	 eax, DWORD PTR _cfg_settings+204
  00069	89 45 f0	 mov	 DWORD PTR _this_y$[ebp], eax

; 4356 :    y_done = 0;

  0006c	c7 45 ec 00 00
	00 00		 mov	 DWORD PTR _y_done$[ebp], 0
$LN4@striped_bl:

; 4357 :    do
; 4358 :    {
; 4359 :       if (y_done + this_y > ysize)

  00073	8b 45 ec	 mov	 eax, DWORD PTR _y_done$[ebp]
  00076	03 45 f0	 add	 eax, DWORD PTR _this_y$[ebp]
  00079	3b 45 f4	 cmp	 eax, DWORD PTR _ysize$[ebp]
  0007c	7e 09		 jle	 SHORT $LN8@striped_bl

; 4360 :          this_y = ysize - y_done;

  0007e	8b 45 f4	 mov	 eax, DWORD PTR _ysize$[ebp]
  00081	2b 45 ec	 sub	 eax, DWORD PTR _y_done$[ebp]
  00084	89 45 f0	 mov	 DWORD PTR _this_y$[ebp], eax
$LN8@striped_bl:

; 4361 : 
; 4362 :       if (ql->status & QSTAT_DO_BLIT) // Blit stripe left half from left quadrant

  00087	8b 45 08	 mov	 eax, DWORD PTR _ql$[ebp]
  0008a	8b 08		 mov	 ecx, DWORD PTR [eax]
  0008c	83 e1 01	 and	 ecx, 1
  0008f	74 45		 je	 SHORT $LN9@striped_bl

; 4363 :       {
; 4364 :          SelectObject(hscreen_dc, ql->handle);

  00091	8b 45 08	 mov	 eax, DWORD PTR _ql$[ebp]
  00094	8b 48 04	 mov	 ecx, DWORD PTR [eax+4]
  00097	51		 push	 ecx
  00098	8b 55 14	 mov	 edx, DWORD PTR _hscreen_dc$[ebp]
  0009b	52		 push	 edx
  0009c	ff 15 00 00 00
	00		 call	 DWORD PTR __imp__SelectObject@8

; 4365 :          BitBlt(hdc, ql->dest_xoffs, dest_yoffs, ql->blit_xsize, this_y,

  000a2	68 20 00 cc 00	 push	 13369376		; 00cc0020H
  000a7	8b 45 fc	 mov	 eax, DWORD PTR _src_yoffs$[ebp]
  000aa	50		 push	 eax
  000ab	8b 4d 08	 mov	 ecx, DWORD PTR _ql$[ebp]
  000ae	8b 51 20	 mov	 edx, DWORD PTR [ecx+32]
  000b1	52		 push	 edx
  000b2	8b 45 14	 mov	 eax, DWORD PTR _hscreen_dc$[ebp]
  000b5	50		 push	 eax
  000b6	8b 4d f0	 mov	 ecx, DWORD PTR _this_y$[ebp]
  000b9	51		 push	 ecx
  000ba	8b 55 08	 mov	 edx, DWORD PTR _ql$[ebp]
  000bd	8b 42 30	 mov	 eax, DWORD PTR [edx+48]
  000c0	50		 push	 eax
  000c1	8b 4d f8	 mov	 ecx, DWORD PTR _dest_yoffs$[ebp]
  000c4	51		 push	 ecx
  000c5	8b 55 08	 mov	 edx, DWORD PTR _ql$[ebp]
  000c8	8b 42 28	 mov	 eax, DWORD PTR [edx+40]
  000cb	50		 push	 eax
  000cc	8b 4d 10	 mov	 ecx, DWORD PTR _hdc$[ebp]
  000cf	51		 push	 ecx
  000d0	ff 15 00 00 00
	00		 call	 DWORD PTR __imp__BitBlt@36
$LN9@striped_bl:

; 4366 :                 hscreen_dc, ql->src_xoffs, src_yoffs, SRCCOPY);
; 4367 :       }
; 4368 :       if (qr->status & QSTAT_DO_BLIT)  // Blit stripe right half from right quadrant

  000d6	8b 45 0c	 mov	 eax, DWORD PTR _qr$[ebp]
  000d9	8b 08		 mov	 ecx, DWORD PTR [eax]
  000db	83 e1 01	 and	 ecx, 1
  000de	74 45		 je	 SHORT $LN10@striped_bl

; 4369 :       {
; 4370 :          SelectObject(hscreen_dc, qr->handle);

  000e0	8b 45 0c	 mov	 eax, DWORD PTR _qr$[ebp]
  000e3	8b 48 04	 mov	 ecx, DWORD PTR [eax+4]
  000e6	51		 push	 ecx
  000e7	8b 55 14	 mov	 edx, DWORD PTR _hscreen_dc$[ebp]
  000ea	52		 push	 edx
  000eb	ff 15 00 00 00
	00		 call	 DWORD PTR __imp__SelectObject@8

; 4371 :          BitBlt(hdc, qr->dest_xoffs, dest_yoffs, qr->blit_xsize, this_y,

  000f1	68 20 00 cc 00	 push	 13369376		; 00cc0020H
  000f6	8b 45 fc	 mov	 eax, DWORD PTR _src_yoffs$[ebp]
  000f9	50		 push	 eax
  000fa	8b 4d 0c	 mov	 ecx, DWORD PTR _qr$[ebp]
  000fd	8b 51 20	 mov	 edx, DWORD PTR [ecx+32]
  00100	52		 push	 edx
  00101	8b 45 14	 mov	 eax, DWORD PTR _hscreen_dc$[ebp]
  00104	50		 push	 eax
  00105	8b 4d f0	 mov	 ecx, DWORD PTR _this_y$[ebp]
  00108	51		 push	 ecx
  00109	8b 55 0c	 mov	 edx, DWORD PTR _qr$[ebp]
  0010c	8b 42 30	 mov	 eax, DWORD PTR [edx+48]
  0010f	50		 push	 eax
  00110	8b 4d f8	 mov	 ecx, DWORD PTR _dest_yoffs$[ebp]
  00113	51		 push	 ecx
  00114	8b 55 0c	 mov	 edx, DWORD PTR _qr$[ebp]
  00117	8b 42 28	 mov	 eax, DWORD PTR [edx+40]
  0011a	50		 push	 eax
  0011b	8b 4d 10	 mov	 ecx, DWORD PTR _hdc$[ebp]
  0011e	51		 push	 ecx
  0011f	ff 15 00 00 00
	00		 call	 DWORD PTR __imp__BitBlt@36
$LN10@striped_bl:

; 4372 :                 hscreen_dc, qr->src_xoffs, src_yoffs, SRCCOPY);
; 4373 :       }
; 4374 : 
; 4375 :       src_yoffs += this_y;

  00125	8b 45 fc	 mov	 eax, DWORD PTR _src_yoffs$[ebp]
  00128	03 45 f0	 add	 eax, DWORD PTR _this_y$[ebp]
  0012b	89 45 fc	 mov	 DWORD PTR _src_yoffs$[ebp], eax

; 4376 :       dest_yoffs += this_y;

  0012e	8b 45 f8	 mov	 eax, DWORD PTR _dest_yoffs$[ebp]
  00131	03 45 f0	 add	 eax, DWORD PTR _this_y$[ebp]
  00134	89 45 f8	 mov	 DWORD PTR _dest_yoffs$[ebp], eax

; 4377 :       y_done += this_y;

  00137	8b 45 ec	 mov	 eax, DWORD PTR _y_done$[ebp]
  0013a	03 45 f0	 add	 eax, DWORD PTR _this_y$[ebp]
  0013d	89 45 ec	 mov	 DWORD PTR _y_done$[ebp], eax

; 4378 :    }
; 4379 :    while (y_done != ysize);

  00140	8b 45 ec	 mov	 eax, DWORD PTR _y_done$[ebp]
  00143	3b 45 f4	 cmp	 eax, DWORD PTR _ysize$[ebp]
  00146	0f 85 27 ff ff
	ff		 jne	 $LN4@striped_bl
$LN1@striped_bl:

; 4380 : }

  0014c	5f		 pop	 edi
  0014d	5e		 pop	 esi
  0014e	5b		 pop	 ebx
  0014f	8b e5		 mov	 esp, ebp
  00151	5d		 pop	 ebp
  00152	c3		 ret	 0
_striped_blit ENDP
_TEXT	ENDS
; Function compile flags: /Odtp /ZI
; File d:\stanley\desktop\quickman_v110\source\quickman.c
;	COMDAT _man_dialog_proc@16
_TEXT	SEGMENT
tv758 = -172						; size = 4
tv750 = -172						; size = 4
tv537 = -172						; size = 4
tv523 = -172						; size = 4
tv333 = -172						; size = 4
tv295 = -172						; size = 4
tv64 = -172						; size = 4
_aspect$1 = -104					; size = 8
_m$ = -96						; size = 4
_e$ = -92						; size = 4
_rc_dialog$ = -88					; size = 16
_rc_status$ = -72					; size = 16
_rc_tframe$ = -56					; size = 16
_tab_spacing$ = -40					; size = 4
_max_tries$ = -36					; size = 4
_done$ = -32						; size = 4
_last_ypixel$ = -28					; size = 4
_frame_h$ = -24						; size = 4
_frame_w$ = -20						; size = 4
_text_h$ = -16						; size = 4
_text_w$ = -12						; size = 4
_dialog_h$ = -8						; size = 4
_dialog_w$ = -4						; size = 4
_hwnd$ = 8						; size = 4
_uMsg$ = 12						; size = 4
_wParam$ = 16						; size = 4
_lParam$ = 20						; size = 4
_man_dialog_proc@16 PROC				; COMDAT

; 3918 : {

  00000	55		 push	 ebp
  00001	8b ec		 mov	 ebp, esp
  00003	81 ec ac 00 00
	00		 sub	 esp, 172		; 000000acH
  00009	53		 push	 ebx
  0000a	56		 push	 esi
  0000b	57		 push	 edi

; 3919 :    static int adj_iters_prev = 0, ignore_next_change = 0;
; 3920 :    static int new_file_entered = 0, new_file_selected = 0;
; 3921 :    int dialog_w, dialog_h, text_w, text_h, frame_w, frame_h, last_ypixel, done, max_tries;
; 3922 :    int tab_spacing = 26; // dialog box units

  0000c	c7 45 d8 1a 00
	00 00		 mov	 DWORD PTR _tab_spacing$[ebp], 26 ; 0000001aH

; 3923 :    RECT rc_tframe, rc_status, rc_dialog;
; 3924 :    log_entry *e;
; 3925 :    man_calc_struct *m;
; 3926 : 
; 3927 :    m = &main_man_calc_struct;

  00013	c7 45 a0 00 00
	00 00		 mov	 DWORD PTR _m$[ebp], OFFSET _main_man_calc_struct

; 3928 : 
; 3929 :    // Original dialog box coords and sizes, for adjustment
; 3930 :    #define ORIG_YBORDER         34
; 3931 :    #define ORIG_DIALOG_HEIGHT   (700 + ORIG_YBORDER)
; 3932 :    #define ORIG_DIALOG_WIDTH    173
; 3933 :    #define ORIG_STATUS_X        8
; 3934 :    #define YBORDER_ADJUSTMENT   (y_border - ORIG_YBORDER)
; 3935 :    #define ORIG_LPIX            96  // original logical pixels per inch
; 3936 :    #define TFRAME_MIN_HEIGHT    1   // thumbnail frame is now an invisible dummy item used for sizing
; 3937 : 
; 3938 :    switch (uMsg)

  0001a	8b 45 0c	 mov	 eax, DWORD PTR _uMsg$[ebp]
  0001d	89 85 54 ff ff
	ff		 mov	 DWORD PTR tv64[ebp], eax
  00023	8b 8d 54 ff ff
	ff		 mov	 ecx, DWORD PTR tv64[ebp]
  00029	81 e9 10 01 00
	00		 sub	 ecx, 272		; 00000110H
  0002f	89 8d 54 ff ff
	ff		 mov	 DWORD PTR tv64[ebp], ecx
  00035	83 bd 54 ff ff
	ff 05		 cmp	 DWORD PTR tv64[ebp], 5
  0003c	0f 87 7b 0c 00
	00		 ja	 $LN2@man_dialog
  00042	8b 95 54 ff ff
	ff		 mov	 edx, DWORD PTR tv64[ebp]
  00048	ff 24 95 00 00
	00 00		 jmp	 DWORD PTR $LN79@man_dialog[edx*4]
$LN11@man_dialog:

; 3939 :    {
; 3940 :       case WM_INITDIALOG:
; 3941 : 
; 3942 :          // Initialize all dialog box fields
; 3943 :          SetDlgItemInt(hwnd, IDC_ITERS, m->max_iters, FALSE);

  0004f	6a 00		 push	 0
  00051	8b 45 a0	 mov	 eax, DWORD PTR _m$[ebp]
  00054	8b 88 c0 8d 00
	00		 mov	 ecx, DWORD PTR [eax+36288]
  0005a	51		 push	 ecx
  0005b	68 fb 03 00 00	 push	 1019			; 000003fbH
  00060	8b 55 08	 mov	 edx, DWORD PTR _hwnd$[ebp]
  00063	52		 push	 edx
  00064	ff 15 00 00 00
	00		 call	 DWORD PTR __imp__SetDlgItemInt@16

; 3944 :          SendDlgItemMessage(hwnd, IDC_PAN_RATE, TBM_SETRANGE, TRUE, MAKELONG(0, MAX_PAN_RATE));

  0006a	68 00 00 14 00	 push	 1310720			; 00140000H
  0006f	6a 01		 push	 1
  00071	68 06 04 00 00	 push	 1030			; 00000406H
  00076	68 17 04 00 00	 push	 1047			; 00000417H
  0007b	8b 45 08	 mov	 eax, DWORD PTR _hwnd$[ebp]
  0007e	50		 push	 eax
  0007f	ff 15 00 00 00
	00		 call	 DWORD PTR __imp__SendDlgItemMessageA@20

; 3945 :          SendDlgItemMessage(hwnd, IDC_ZOOM_RATE, TBM_SETRANGE, TRUE, MAKELONG(0, MAX_ZOOM_RATE));

  00085	68 00 00 14 00	 push	 1310720			; 00140000H
  0008a	6a 01		 push	 1
  0008c	68 06 04 00 00	 push	 1030			; 00000406H
  00091	68 18 04 00 00	 push	 1048			; 00000418H
  00096	8b 45 08	 mov	 eax, DWORD PTR _hwnd$[ebp]
  00099	50		 push	 eax
  0009a	ff 15 00 00 00
	00		 call	 DWORD PTR __imp__SendDlgItemMessageA@20

; 3946 :          init_combo_box(hwnd, IDC_PRECISION, precision_strs, NUM_ELEM(precision_strs), m->precision);

  000a0	8b 45 a0	 mov	 eax, DWORD PTR _m$[ebp]
  000a3	8b 88 d0 8d 00
	00		 mov	 ecx, DWORD PTR [eax+36304]
  000a9	51		 push	 ecx
  000aa	6a 04		 push	 4
  000ac	68 00 00 00 00	 push	 OFFSET _precision_strs
  000b1	68 f2 03 00 00	 push	 1010			; 000003f2H
  000b6	8b 55 08	 mov	 edx, DWORD PTR _hwnd$[ebp]
  000b9	52		 push	 edx
  000ba	e8 00 00 00 00	 call	 _init_combo_box
  000bf	83 c4 14	 add	 esp, 20			; 00000014H

; 3947 :          init_combo_box(hwnd, IDC_PALETTE, palette_strs, NUM_ELEM(palette_strs), m->palette);

  000c2	8b 45 a0	 mov	 eax, DWORD PTR _m$[ebp]
  000c5	8b 88 f4 8d 00
	00		 mov	 ecx, DWORD PTR [eax+36340]
  000cb	51		 push	 ecx
  000cc	6a 0e		 push	 14			; 0000000eH
  000ce	68 00 00 00 00	 push	 OFFSET _palette_strs
  000d3	68 03 04 00 00	 push	 1027			; 00000403H
  000d8	8b 55 08	 mov	 edx, DWORD PTR _hwnd$[ebp]
  000db	52		 push	 edx
  000dc	e8 00 00 00 00	 call	 _init_combo_box
  000e1	83 c4 14	 add	 esp, 20			; 00000014H

; 3948 :          init_combo_box(hwnd, IDC_RENDERING, rendering_strs, NUM_ELEM(rendering_strs), m->rendering_alg);

  000e4	8b 45 a0	 mov	 eax, DWORD PTR _m$[ebp]
  000e7	8b 88 04 8e 00
	00		 mov	 ecx, DWORD PTR [eax+36356]
  000ed	51		 push	 ecx
  000ee	6a 02		 push	 2
  000f0	68 00 00 00 00	 push	 OFFSET _rendering_strs
  000f5	68 04 04 00 00	 push	 1028			; 00000404H
  000fa	8b 55 08	 mov	 edx, DWORD PTR _hwnd$[ebp]
  000fd	52		 push	 edx
  000fe	e8 00 00 00 00	 call	 _init_combo_box
  00103	83 c4 14	 add	 esp, 20			; 00000014H

; 3949 :          init_combo_box(hwnd, IDC_ALGORITHM, alg_strs, NUM_ELEM(alg_strs), m->alg);

  00106	8b 45 a0	 mov	 eax, DWORD PTR _m$[ebp]
  00109	8b 88 c8 8d 00
	00		 mov	 ecx, DWORD PTR [eax+36296]
  0010f	51		 push	 ecx
  00110	6a 06		 push	 6
  00112	68 00 00 00 00	 push	 OFFSET _alg_strs
  00117	68 05 04 00 00	 push	 1029			; 00000405H
  0011c	8b 55 08	 mov	 edx, DWORD PTR _hwnd$[ebp]
  0011f	52		 push	 edx
  00120	e8 00 00 00 00	 call	 _init_combo_box
  00125	83 c4 14	 add	 esp, 20			; 00000014H

; 3950 :          init_combo_box(hwnd, IDC_THREADS, num_threads_strs, MAX_THREADS_IND + 1, num_threads_ind);

  00128	a1 00 00 00 00	 mov	 eax, DWORD PTR _num_threads_ind
  0012d	50		 push	 eax
  0012e	6a 06		 push	 6
  00130	68 00 00 00 00	 push	 OFFSET _num_threads_strs
  00135	68 06 04 00 00	 push	 1030			; 00000406H
  0013a	8b 4d 08	 mov	 ecx, DWORD PTR _hwnd$[ebp]
  0013d	51		 push	 ecx
  0013e	e8 00 00 00 00	 call	 _init_combo_box
  00143	83 c4 14	 add	 esp, 20			; 00000014H

; 3951 :          init_combo_box(hwnd, IDC_LOGFILE, file_strs, NUM_ELEM(file_strs), 0);

  00146	6a 00		 push	 0
  00148	6a 02		 push	 2
  0014a	68 00 00 00 00	 push	 OFFSET _file_strs
  0014f	68 07 04 00 00	 push	 1031			; 00000407H
  00154	8b 45 08	 mov	 eax, DWORD PTR _hwnd$[ebp]
  00157	50		 push	 eax
  00158	e8 00 00 00 00	 call	 _init_combo_box
  0015d	83 c4 14	 add	 esp, 20			; 00000014H

; 3952 : 
; 3953 :          // default save filename- later have this scan for next available
; 3954 :          SetWindowText(GetDlgItem(hwnd, IDC_SAVEFILE), savefile);

  00160	68 00 00 00 00	 push	 OFFSET _savefile
  00165	68 2e 04 00 00	 push	 1070			; 0000042eH
  0016a	8b 45 08	 mov	 eax, DWORD PTR _hwnd$[ebp]
  0016d	50		 push	 eax
  0016e	ff 15 00 00 00
	00		 call	 DWORD PTR __imp__GetDlgItem@8
  00174	50		 push	 eax
  00175	ff 15 00 00 00
	00		 call	 DWORD PTR __imp__SetWindowTextA@8

; 3955 : 
; 3956 :          // Set tab stops for the INFO window
; 3957 :          SendDlgItemMessage(hwnd, IDC_INFO, EM_SETTABSTOPS, 1, (LPARAM) &tab_spacing);

  0017b	8d 45 d8	 lea	 eax, DWORD PTR _tab_spacing$[ebp]
  0017e	50		 push	 eax
  0017f	6a 01		 push	 1
  00181	68 cb 00 00 00	 push	 203			; 000000cbH
  00186	68 ea 03 00 00	 push	 1002			; 000003eaH
  0018b	8b 4d 08	 mov	 ecx, DWORD PTR _hwnd$[ebp]
  0018e	51		 push	 ecx
  0018f	ff 15 00 00 00
	00		 call	 DWORD PTR __imp__SendDlgItemMessageA@20

; 3958 : 
; 3959 :          // If any of these are null, the system has major problems
; 3960 :          hwnd_iters = GetDlgItem(hwnd, IDC_ITERS);

  00195	68 fb 03 00 00	 push	 1019			; 000003fbH
  0019a	8b 45 08	 mov	 eax, DWORD PTR _hwnd$[ebp]
  0019d	50		 push	 eax
  0019e	ff 15 00 00 00
	00		 call	 DWORD PTR __imp__GetDlgItem@8
  001a4	a3 00 00 00 00	 mov	 DWORD PTR _hwnd_iters, eax

; 3961 :          hwnd_info = GetDlgItem(hwnd, IDC_INFO);

  001a9	68 ea 03 00 00	 push	 1002			; 000003eaH
  001ae	8b 45 08	 mov	 eax, DWORD PTR _hwnd$[ebp]
  001b1	50		 push	 eax
  001b2	ff 15 00 00 00
	00		 call	 DWORD PTR __imp__GetDlgItem@8
  001b8	a3 00 00 00 00	 mov	 DWORD PTR _hwnd_info, eax

; 3962 :          hwnd_status = GetDlgItem(hwnd, IDC_STATUS);

  001bd	68 e9 03 00 00	 push	 1001			; 000003e9H
  001c2	8b 45 08	 mov	 eax, DWORD PTR _hwnd$[ebp]
  001c5	50		 push	 eax
  001c6	ff 15 00 00 00
	00		 call	 DWORD PTR __imp__GetDlgItem@8
  001cc	a3 00 00 00 00	 mov	 DWORD PTR _hwnd_status, eax

; 3963 :          hwnd_status2 = GetDlgItem(hwnd, IDC_STATUS2);

  001d1	68 ef 03 00 00	 push	 1007			; 000003efH
  001d6	8b 45 08	 mov	 eax, DWORD PTR _hwnd$[ebp]
  001d9	50		 push	 eax
  001da	ff 15 00 00 00
	00		 call	 DWORD PTR __imp__GetDlgItem@8
  001e0	a3 00 00 00 00	 mov	 DWORD PTR _hwnd_status2, eax

; 3964 :          hwnd_thumbnail_frame = GetDlgItem(hwnd, IDC_THUMBNAIL_FRAME); // v1.10: now an invisible dummy item

  001e5	68 19 04 00 00	 push	 1049			; 00000419H
  001ea	8b 45 08	 mov	 eax, DWORD PTR _hwnd$[ebp]
  001ed	50		 push	 eax
  001ee	ff 15 00 00 00
	00		 call	 DWORD PTR __imp__GetDlgItem@8
  001f4	a3 00 00 00 00	 mov	 DWORD PTR _hwnd_thumbnail_frame, eax

; 3965 : 
; 3966 :          // PNG save and Preserve aspect ratio buttons checked by default
; 3967 :          SendDlgItemMessage(hwnd, IDC_PNG, BM_SETCHECK, BST_CHECKED, 0);

  001f9	6a 00		 push	 0
  001fb	6a 01		 push	 1
  001fd	68 f1 00 00 00	 push	 241			; 000000f1H
  00202	68 27 04 00 00	 push	 1063			; 00000427H
  00207	8b 45 08	 mov	 eax, DWORD PTR _hwnd$[ebp]
  0020a	50		 push	 eax
  0020b	ff 15 00 00 00
	00		 call	 DWORD PTR __imp__SendDlgItemMessageA@20

; 3968 :          SendDlgItemMessage(hwnd, IDC_ASPECT, BM_SETCHECK, BST_CHECKED, 0);

  00211	6a 00		 push	 0
  00213	6a 01		 push	 1
  00215	68 f1 00 00 00	 push	 241			; 000000f1H
  0021a	68 22 04 00 00	 push	 1058			; 00000422H
  0021f	8b 45 08	 mov	 eax, DWORD PTR _hwnd$[ebp]
  00222	50		 push	 eax
  00223	ff 15 00 00 00
	00		 call	 DWORD PTR __imp__SendDlgItemMessageA@20

; 3969 : 
; 3970 :          // Adjust dialog box to compensate for different border and font sizes. What a pain...
; 3971 : 
; 3972 :          // To simulate Vista large fonts on XP: set font size to large, set lpix_per_inch to
; 3973 :          // 120, and change "MS Shell Dlg" font size to 10 in quickman.rc. Seems almost exact.
; 3974 :          // lpix_per_inch = 120;
; 3975 : 
; 3976 :          // The seems to be no documented function to help figure out how a dialog box width
; 3977 :          // should scale with font size. The calc. below usually turns out too wide. Will be
; 3978 :          // corrected in an iterative process below...
; 3979 : 
; 3980 :          dialog_w = (lpix_per_inch * (ORIG_DIALOG_WIDTH - x_dialog_border)) / ORIG_LPIX + x_dialog_border;

  00229	b8 ad 00 00 00	 mov	 eax, 173		; 000000adH
  0022e	2b 05 00 00 00
	00		 sub	 eax, DWORD PTR _x_dialog_border
  00234	0f af 05 00 00
	00 00		 imul	 eax, DWORD PTR _lpix_per_inch
  0023b	99		 cdq
  0023c	b9 60 00 00 00	 mov	 ecx, 96			; 00000060H
  00241	f7 f9		 idiv	 ecx
  00243	03 05 00 00 00
	00		 add	 eax, DWORD PTR _x_dialog_border
  00249	89 45 fc	 mov	 DWORD PTR _dialog_w$[ebp], eax

; 3981 : 
; 3982 :          // Initially, see if things fit in a dialog that's the same height as the main window
; 3983 :          dialog_h = ORIG_DIALOG_HEIGHT + YBORDER_ADJUSTMENT;

  0024c	a1 00 00 00 00	 mov	 eax, DWORD PTR _y_border
  00251	05 bc 02 00 00	 add	 eax, 700		; 000002bcH
  00256	89 45 f8	 mov	 DWORD PTR _dialog_h$[ebp], eax

; 3984 : 
; 3985 :          // With pathologically large fonts, could fail to make a decent box- just give up
; 3986 :          // after a certain number of tries
; 3987 :          max_tries = 3;

  00259	c7 45 dc 03 00
	00 00		 mov	 DWORD PTR _max_tries$[ebp], 3
$LN6@man_dialog:

; 3988 : 
; 3989 :          do
; 3990 :          {
; 3991 :             SetWindowPos(hwnd, HWND_TOP, 0, 0, dialog_w, dialog_h, SWP_NOMOVE | SWP_HIDEWINDOW);

  00260	68 82 00 00 00	 push	 130			; 00000082H
  00265	8b 45 f8	 mov	 eax, DWORD PTR _dialog_h$[ebp]
  00268	50		 push	 eax
  00269	8b 4d fc	 mov	 ecx, DWORD PTR _dialog_w$[ebp]
  0026c	51		 push	 ecx
  0026d	6a 00		 push	 0
  0026f	6a 00		 push	 0
  00271	6a 00		 push	 0
  00273	8b 55 08	 mov	 edx, DWORD PTR _hwnd$[ebp]
  00276	52		 push	 edx
  00277	ff 15 00 00 00
	00		 call	 DWORD PTR __imp__SetWindowPos@28

; 3992 :             GetWindowRect(hwnd, &rc_dialog); // get adjusted dialog rect

  0027d	8d 45 a8	 lea	 eax, DWORD PTR _rc_dialog$[ebp]
  00280	50		 push	 eax
  00281	8b 4d 08	 mov	 ecx, DWORD PTR _hwnd$[ebp]
  00284	51		 push	 ecx
  00285	ff 15 00 00 00
	00		 call	 DWORD PTR __imp__GetWindowRect@8

; 3993 : 
; 3994 :             // Dialog item positions are relative to dialog box coords. y = 0 is the topmost pixel in the
; 3995 :             // dialog (inside the border). Last_ypixel is the bottommost pixel in the dialog. These seem
; 3996 :             // to be the right calculations...
; 3997 : 
; 3998 :             last_ypixel = rc_dialog.bottom - rc_dialog.top - y_dialog_border - 1;

  0028b	8b 45 b4	 mov	 eax, DWORD PTR _rc_dialog$[ebp+12]
  0028e	2b 45 ac	 sub	 eax, DWORD PTR _rc_dialog$[ebp+4]
  00291	2b 05 00 00 00
	00		 sub	 eax, DWORD PTR _y_dialog_border
  00297	83 e8 01	 sub	 eax, 1
  0029a	89 45 e4	 mov	 DWORD PTR _last_ypixel$[ebp], eax

; 3999 : 
; 4000 :             GetWindowRect(hwnd_status, &rc_status);      // get status line rect

  0029d	8d 45 b8	 lea	 eax, DWORD PTR _rc_status$[ebp]
  002a0	50		 push	 eax
  002a1	8b 0d 00 00 00
	00		 mov	 ecx, DWORD PTR _hwnd_status
  002a7	51		 push	 ecx
  002a8	ff 15 00 00 00
	00		 call	 DWORD PTR __imp__GetWindowRect@8

; 4001 :             text_h = rc_status.bottom - rc_status.top;   // height of status line text

  002ae	8b 45 c4	 mov	 eax, DWORD PTR _rc_status$[ebp+12]
  002b1	2b 45 bc	 sub	 eax, DWORD PTR _rc_status$[ebp+4]
  002b4	89 45 f0	 mov	 DWORD PTR _text_h$[ebp], eax

; 4002 : 
; 4003 :             #define TEXT_TO_BOTTOM_SPACE  3 // some fine-tuning constants
; 4004 :             #define TEXT_TO_FRAME_SPACE   6
; 4005 :             #define FRAME_TO_DIALOG_SPACE 6 // distance to dialog edges from each vertical side of frame
; 4006 : 
; 4007 :             text_h += TEXT_TO_BOTTOM_SPACE;

  002b7	8b 45 f0	 mov	 eax, DWORD PTR _text_h$[ebp]
  002ba	83 c0 03	 add	 eax, 3
  002bd	89 45 f0	 mov	 DWORD PTR _text_h$[ebp], eax

; 4008 : 
; 4009 :             // Adjust status1/status2 ypos so they're just above the bottom of the dialog
; 4010 :             SetWindowPos(hwnd_status, HWND_TOP, ORIG_STATUS_X, last_ypixel - text_h, 0, 0, SWP_NOSIZE);

  002c0	6a 01		 push	 1
  002c2	6a 00		 push	 0
  002c4	6a 00		 push	 0
  002c6	8b 45 e4	 mov	 eax, DWORD PTR _last_ypixel$[ebp]
  002c9	2b 45 f0	 sub	 eax, DWORD PTR _text_h$[ebp]
  002cc	50		 push	 eax
  002cd	6a 08		 push	 8
  002cf	6a 00		 push	 0
  002d1	8b 0d 00 00 00
	00		 mov	 ecx, DWORD PTR _hwnd_status
  002d7	51		 push	 ecx
  002d8	ff 15 00 00 00
	00		 call	 DWORD PTR __imp__SetWindowPos@28

; 4011 : 
; 4012 :             GetWindowRect(hwnd_status2, &rc_status);        // get status2 line rect

  002de	8d 45 b8	 lea	 eax, DWORD PTR _rc_status$[ebp]
  002e1	50		 push	 eax
  002e2	8b 0d 00 00 00
	00		 mov	 ecx, DWORD PTR _hwnd_status2
  002e8	51		 push	 ecx
  002e9	ff 15 00 00 00
	00		 call	 DWORD PTR __imp__GetWindowRect@8

; 4013 :             text_w = rc_status.right - rc_status.left + 4;  // not sure why this width is off by a few pixels

  002ef	8b 45 c0	 mov	 eax, DWORD PTR _rc_status$[ebp+8]
  002f2	2b 45 b8	 sub	 eax, DWORD PTR _rc_status$[ebp]
  002f5	83 c0 04	 add	 eax, 4
  002f8	89 45 f4	 mov	 DWORD PTR _text_w$[ebp], eax

; 4014 : 
; 4015 :             // Get thumbnail frame rectangle
; 4016 :             GetWindowRect(hwnd_thumbnail_frame, &rc_tframe);

  002fb	8d 45 c8	 lea	 eax, DWORD PTR _rc_tframe$[ebp]
  002fe	50		 push	 eax
  002ff	8b 0d 00 00 00
	00		 mov	 ecx, DWORD PTR _hwnd_thumbnail_frame
  00305	51		 push	 ecx
  00306	ff 15 00 00 00
	00		 call	 DWORD PTR __imp__GetWindowRect@8

; 4017 : 
; 4018 :             // Adjust status2 xpos so its right lines up with the thumbnail frame right
; 4019 :             SetWindowPos(hwnd_status2, HWND_TOP, rc_tframe.right - rc_dialog.left - text_w,

  0030c	6a 01		 push	 1
  0030e	6a 00		 push	 0
  00310	6a 00		 push	 0
  00312	8b 45 e4	 mov	 eax, DWORD PTR _last_ypixel$[ebp]
  00315	2b 45 f0	 sub	 eax, DWORD PTR _text_h$[ebp]
  00318	50		 push	 eax
  00319	8b 4d d0	 mov	 ecx, DWORD PTR _rc_tframe$[ebp+8]
  0031c	2b 4d a8	 sub	 ecx, DWORD PTR _rc_dialog$[ebp]
  0031f	2b 4d f4	 sub	 ecx, DWORD PTR _text_w$[ebp]
  00322	51		 push	 ecx
  00323	6a 00		 push	 0
  00325	8b 15 00 00 00
	00		 mov	 edx, DWORD PTR _hwnd_status2
  0032b	52		 push	 edx
  0032c	ff 15 00 00 00
	00		 call	 DWORD PTR __imp__SetWindowPos@28

; 4020 :                          last_ypixel - text_h, 0, 0, SWP_NOSIZE);
; 4021 : 
; 4022 :             // Adjust height of thumbnail frame so its bottom is just above the status line top
; 4023 :             SetWindowPos(hwnd_thumbnail_frame, HWND_TOP, 0, 0, frame_w = rc_tframe.right - rc_tframe.left,

  00332	8b 45 b4	 mov	 eax, DWORD PTR _rc_dialog$[ebp+12]
  00335	2b 45 cc	 sub	 eax, DWORD PTR _rc_tframe$[ebp+4]
  00338	2b 45 f0	 sub	 eax, DWORD PTR _text_h$[ebp]
  0033b	83 e8 06	 sub	 eax, 6
  0033e	89 45 e8	 mov	 DWORD PTR _frame_h$[ebp], eax
  00341	8b 4d d0	 mov	 ecx, DWORD PTR _rc_tframe$[ebp+8]
  00344	2b 4d c8	 sub	 ecx, DWORD PTR _rc_tframe$[ebp]
  00347	89 4d ec	 mov	 DWORD PTR _frame_w$[ebp], ecx
  0034a	6a 02		 push	 2
  0034c	8b 55 e8	 mov	 edx, DWORD PTR _frame_h$[ebp]
  0034f	52		 push	 edx
  00350	8b 45 ec	 mov	 eax, DWORD PTR _frame_w$[ebp]
  00353	50		 push	 eax
  00354	6a 00		 push	 0
  00356	6a 00		 push	 0
  00358	6a 00		 push	 0
  0035a	8b 0d 00 00 00
	00		 mov	 ecx, DWORD PTR _hwnd_thumbnail_frame
  00360	51		 push	 ecx
  00361	ff 15 00 00 00
	00		 call	 DWORD PTR __imp__SetWindowPos@28

; 4024 :                          frame_h = rc_dialog.bottom - rc_tframe.top - text_h - TEXT_TO_FRAME_SPACE,
; 4025 :                          SWP_NOMOVE);
; 4026 : 
; 4027 :             done = 1;

  00367	c7 45 e0 01 00
	00 00		 mov	 DWORD PTR _done$[ebp], 1

; 4028 : 
; 4029 :             // If dialog is too wide or too narrow, adjust to frame width and start over
; 4030 :             if (dialog_w != (frame_w += 2 * (lpix_per_inch * FRAME_TO_DIALOG_SPACE) / ORIG_LPIX + x_dialog_border))

  0036e	6b 05 00 00 00
	00 06		 imul	 eax, DWORD PTR _lpix_per_inch, 6
  00375	d1 e0		 shl	 eax, 1
  00377	99		 cdq
  00378	b9 60 00 00 00	 mov	 ecx, 96			; 00000060H
  0037d	f7 f9		 idiv	 ecx
  0037f	03 05 00 00 00
	00		 add	 eax, DWORD PTR _x_dialog_border
  00385	03 45 ec	 add	 eax, DWORD PTR _frame_w$[ebp]
  00388	89 45 ec	 mov	 DWORD PTR _frame_w$[ebp], eax
  0038b	8b 55 fc	 mov	 edx, DWORD PTR _dialog_w$[ebp]
  0038e	3b 55 ec	 cmp	 edx, DWORD PTR _frame_w$[ebp]
  00391	74 0d		 je	 SHORT $LN12@man_dialog

; 4031 :             {
; 4032 :                dialog_w = frame_w;

  00393	8b 45 ec	 mov	 eax, DWORD PTR _frame_w$[ebp]
  00396	89 45 fc	 mov	 DWORD PTR _dialog_w$[ebp], eax

; 4033 :                done = 0;

  00399	c7 45 e0 00 00
	00 00		 mov	 DWORD PTR _done$[ebp], 0
$LN12@man_dialog:

; 4034 :             }
; 4035 : 
; 4036 :             // If frame height is too small, increase dialog height and start over
; 4037 :             if (frame_h < TFRAME_MIN_HEIGHT)

  003a0	83 7d e8 01	 cmp	 DWORD PTR _frame_h$[ebp], 1
  003a4	7d 15		 jge	 SHORT $LN13@man_dialog

; 4038 :             {
; 4039 :                dialog_h += TFRAME_MIN_HEIGHT - frame_h;

  003a6	b8 01 00 00 00	 mov	 eax, 1
  003ab	2b 45 e8	 sub	 eax, DWORD PTR _frame_h$[ebp]
  003ae	03 45 f8	 add	 eax, DWORD PTR _dialog_h$[ebp]
  003b1	89 45 f8	 mov	 DWORD PTR _dialog_h$[ebp], eax

; 4040 :                done = 0;

  003b4	c7 45 e0 00 00
	00 00		 mov	 DWORD PTR _done$[ebp], 0
$LN13@man_dialog:

; 4041 :             }
; 4042 :          }
; 4043 :          while (!done && --max_tries);

  003bb	83 7d e0 00	 cmp	 DWORD PTR _done$[ebp], 0
  003bf	75 0f		 jne	 SHORT $LN14@man_dialog
  003c1	8b 45 dc	 mov	 eax, DWORD PTR _max_tries$[ebp]
  003c4	83 e8 01	 sub	 eax, 1
  003c7	89 45 dc	 mov	 DWORD PTR _max_tries$[ebp], eax
  003ca	0f 85 90 fe ff
	ff		 jne	 $LN6@man_dialog
$LN14@man_dialog:

; 4044 :          return FALSE;

  003d0	33 c0		 xor	 eax, eax
  003d2	e9 e8 08 00 00	 jmp	 $LN1@man_dialog
$LN15@man_dialog:

; 4045 : 
; 4046 :       case WM_VSCROLL: // Update iterations from spin control
; 4047 :          if ((HWND) lParam == GetDlgItem(hwnd, IDC_ADJUST_ITERS))

  003d7	68 fc 03 00 00	 push	 1020			; 000003fcH
  003dc	8b 45 08	 mov	 eax, DWORD PTR _hwnd$[ebp]
  003df	50		 push	 eax
  003e0	ff 15 00 00 00
	00		 call	 DWORD PTR __imp__GetDlgItem@8
  003e6	39 45 14	 cmp	 DWORD PTR _lParam$[ebp], eax
  003e9	75 7c		 jne	 SHORT $LN7@man_dialog

; 4048 :          {
; 4049 :             m->max_iters = GetDlgItemInt(hwnd, IDC_ITERS, NULL, FALSE); // Get value user may have edited

  003eb	6a 00		 push	 0
  003ed	6a 00		 push	 0
  003ef	68 fb 03 00 00	 push	 1019			; 000003fbH
  003f4	8b 45 08	 mov	 eax, DWORD PTR _hwnd$[ebp]
  003f7	50		 push	 eax
  003f8	ff 15 00 00 00
	00		 call	 DWORD PTR __imp__GetDlgItemInt@16
  003fe	8b 4d a0	 mov	 ecx, DWORD PTR _m$[ebp]
  00401	89 81 c0 8d 00
	00		 mov	 DWORD PTR [ecx+36288], eax

; 4050 :             switch (LOWORD(wParam))

  00407	8b 45 10	 mov	 eax, DWORD PTR _wParam$[ebp]
  0040a	25 ff ff 00 00	 and	 eax, 65535		; 0000ffffH
  0040f	0f b7 c8	 movzx	 ecx, ax
  00412	89 8d 54 ff ff
	ff		 mov	 DWORD PTR tv295[ebp], ecx
  00418	83 bd 54 ff ff
	ff 04		 cmp	 DWORD PTR tv295[ebp], 4
  0041f	74 02		 je	 SHORT $LN17@man_dialog
  00421	eb 44		 jmp	 SHORT $LN7@man_dialog
$LN17@man_dialog:

; 4051 :             {
; 4052 :                case SB_THUMBPOSITION:
; 4053 :                   // No change (0) or decreasing value means up, increasing value means down
; 4054 :                   if (HIWORD(wParam) > adj_iters_prev)

  00423	8b 45 10	 mov	 eax, DWORD PTR _wParam$[ebp]
  00426	c1 e8 10	 shr	 eax, 16			; 00000010H
  00429	25 ff ff 00 00	 and	 eax, 65535		; 0000ffffH
  0042e	0f b7 c8	 movzx	 ecx, ax
  00431	3b 0d 00 00 00
	00		 cmp	 ecx, DWORD PTR ?adj_iters_prev@?1??man_dialog_proc@@9@9
  00437	7e 0e		 jle	 SHORT $LN18@man_dialog

; 4055 :                      update_iters(0, 1);

  00439	6a 01		 push	 1
  0043b	6a 00		 push	 0
  0043d	e8 00 00 00 00	 call	 _update_iters
  00442	83 c4 08	 add	 esp, 8
  00445	eb 0c		 jmp	 SHORT $LN19@man_dialog
$LN18@man_dialog:

; 4056 :                   else
; 4057 :                      update_iters(1, 0);

  00447	6a 00		 push	 0
  00449	6a 01		 push	 1
  0044b	e8 00 00 00 00	 call	 _update_iters
  00450	83 c4 08	 add	 esp, 8
$LN19@man_dialog:

; 4058 :                   adj_iters_prev = HIWORD(wParam);

  00453	8b 45 10	 mov	 eax, DWORD PTR _wParam$[ebp]
  00456	c1 e8 10	 shr	 eax, 16			; 00000010H
  00459	25 ff ff 00 00	 and	 eax, 65535		; 0000ffffH
  0045e	0f b7 c8	 movzx	 ecx, ax
  00461	89 0d 00 00 00
	00		 mov	 DWORD PTR ?adj_iters_prev@?1??man_dialog_proc@@9@9, ecx
$LN7@man_dialog:

; 4059 :                   break;
; 4060 :              }
; 4061 :          }
; 4062 :          return TRUE;

  00467	b8 01 00 00 00	 mov	 eax, 1
  0046c	e9 4e 08 00 00	 jmp	 $LN1@man_dialog
$LN20@man_dialog:

; 4063 : 
; 4064 :       case WM_HSCROLL: // Slider values are being updated. Moving these around during zooming
; 4065 :                        // annoyingly creates about a 1% slowdown, even with no processing.
; 4066 :          if ((HWND) lParam == GetDlgItem(hwnd, IDC_PAN_RATE))

  00471	68 17 04 00 00	 push	 1047			; 00000417H
  00476	8b 45 08	 mov	 eax, DWORD PTR _hwnd$[ebp]
  00479	50		 push	 eax
  0047a	ff 15 00 00 00
	00		 call	 DWORD PTR __imp__GetDlgItem@8
  00480	39 45 14	 cmp	 DWORD PTR _lParam$[ebp], eax
  00483	75 1d		 jne	 SHORT $LN21@man_dialog

; 4067 :             cfg_settings.pan_rate.val = (int) SendDlgItemMessage(hwnd, IDC_PAN_RATE, TBM_GETPOS, 0, 0);

  00485	6a 00		 push	 0
  00487	6a 00		 push	 0
  00489	68 00 04 00 00	 push	 1024			; 00000400H
  0048e	68 17 04 00 00	 push	 1047			; 00000417H
  00493	8b 45 08	 mov	 eax, DWORD PTR _hwnd$[ebp]
  00496	50		 push	 eax
  00497	ff 15 00 00 00
	00		 call	 DWORD PTR __imp__SendDlgItemMessageA@20
  0049d	a3 04 00 00 00	 mov	 DWORD PTR _cfg_settings+4, eax
$LN21@man_dialog:

; 4068 :          if ((HWND) lParam == GetDlgItem(hwnd, IDC_ZOOM_RATE))

  004a2	68 18 04 00 00	 push	 1048			; 00000418H
  004a7	8b 45 08	 mov	 eax, DWORD PTR _hwnd$[ebp]
  004aa	50		 push	 eax
  004ab	ff 15 00 00 00
	00		 call	 DWORD PTR __imp__GetDlgItem@8
  004b1	39 45 14	 cmp	 DWORD PTR _lParam$[ebp], eax
  004b4	75 1d		 jne	 SHORT $LN22@man_dialog

; 4069 :             cfg_settings.zoom_rate.val = (int) SendDlgItemMessage(hwnd, IDC_ZOOM_RATE, TBM_GETPOS, 0, 0);

  004b6	6a 00		 push	 0
  004b8	6a 00		 push	 0
  004ba	68 00 04 00 00	 push	 1024			; 00000400H
  004bf	68 18 04 00 00	 push	 1048			; 00000418H
  004c4	8b 45 08	 mov	 eax, DWORD PTR _hwnd$[ebp]
  004c7	50		 push	 eax
  004c8	ff 15 00 00 00
	00		 call	 DWORD PTR __imp__SendDlgItemMessageA@20
  004ce	a3 2c 00 00 00	 mov	 DWORD PTR _cfg_settings+44, eax
$LN22@man_dialog:

; 4070 :          reset_fps_values(); // reset frames/sec timing values when pan or zoom rate changes

  004d3	e8 00 00 00 00	 call	 _reset_fps_values

; 4071 :          return TRUE;

  004d8	b8 01 00 00 00	 mov	 eax, 1
  004dd	e9 dd 07 00 00	 jmp	 $LN1@man_dialog
$LN23@man_dialog:

; 4072 : 
; 4073 :       case WM_COMMAND:
; 4074 : 
; 4075 :          switch (LOWORD(wParam))

  004e2	8b 45 10	 mov	 eax, DWORD PTR _wParam$[ebp]
  004e5	25 ff ff 00 00	 and	 eax, 65535		; 0000ffffH
  004ea	0f b7 c8	 movzx	 ecx, ax
  004ed	89 8d 54 ff ff
	ff		 mov	 DWORD PTR tv333[ebp], ecx
  004f3	81 bd 54 ff ff
	ff f2 03 00 00	 cmp	 DWORD PTR tv333[ebp], 1010 ; 000003f2H
  004fd	7f 40		 jg	 SHORT $LN76@man_dialog
  004ff	81 bd 54 ff ff
	ff f2 03 00 00	 cmp	 DWORD PTR tv333[ebp], 1010 ; 000003f2H
  00509	0f 84 b4 01 00
	00		 je	 $LN33@man_dialog
  0050f	8b 95 54 ff ff
	ff		 mov	 edx, DWORD PTR tv333[ebp]
  00515	83 ea 08	 sub	 edx, 8
  00518	89 95 54 ff ff
	ff		 mov	 DWORD PTR tv333[ebp], edx
  0051e	83 bd 54 ff ff
	ff 0c		 cmp	 DWORD PTR tv333[ebp], 12 ; 0000000cH
  00525	0f 87 8e 07 00
	00		 ja	 $LN68@man_dialog
  0052b	8b 85 54 ff ff
	ff		 mov	 eax, DWORD PTR tv333[ebp]
  00531	0f b6 88 00 00
	00 00		 movzx	 ecx, BYTE PTR $LN77@man_dialog[eax]
  00538	ff 24 8d 00 00
	00 00		 jmp	 DWORD PTR $LN80@man_dialog[ecx*4]
$LN76@man_dialog:
  0053f	8b 95 54 ff ff
	ff		 mov	 edx, DWORD PTR tv333[ebp]
  00545	81 ea 03 04 00
	00		 sub	 edx, 1027		; 00000403H
  0054b	89 95 54 ff ff
	ff		 mov	 DWORD PTR tv333[ebp], edx
  00551	83 bd 54 ff ff
	ff 2a		 cmp	 DWORD PTR tv333[ebp], 42 ; 0000002aH
  00558	0f 87 5b 07 00
	00		 ja	 $LN68@man_dialog
  0055e	8b 85 54 ff ff
	ff		 mov	 eax, DWORD PTR tv333[ebp]
  00564	0f b6 88 00 00
	00 00		 movzx	 ecx, BYTE PTR $LN78@man_dialog[eax]
  0056b	ff 24 8d 00 00
	00 00		 jmp	 DWORD PTR $LN81@man_dialog[ecx*4]
$LN24@man_dialog:

; 4076 :          {
; 4077 :             case IDC_LOGFILE:
; 4078 :                if (HIWORD(wParam) == CBN_EDITCHANGE)

  00572	8b 45 10	 mov	 eax, DWORD PTR _wParam$[ebp]
  00575	c1 e8 10	 shr	 eax, 16			; 00000010H
  00578	25 ff ff 00 00	 and	 eax, 65535		; 0000ffffH
  0057d	0f b7 c8	 movzx	 ecx, ax
  00580	83 f9 05	 cmp	 ecx, 5
  00583	75 14		 jne	 SHORT $LN25@man_dialog

; 4079 :                {
; 4080 :                   new_file_entered = 1;             // Mark that user entered a new filename: will be

  00585	c7 05 00 00 00
	00 01 00 00 00	 mov	 DWORD PTR ?new_file_entered@?1??man_dialog_proc@@9@9, 1

; 4081 :                   new_file_selected = 0;            // added to box when a log func is used.

  0058f	c7 05 00 00 00
	00 00 00 00 00	 mov	 DWORD PTR ?new_file_selected@?1??man_dialog_proc@@9@9, 0
$LN25@man_dialog:

; 4082 :                }
; 4083 :                if (HIWORD(wParam) == CBN_SELCHANGE) // No longer really need to read logfile immediately

  00599	8b 45 10	 mov	 eax, DWORD PTR _wParam$[ebp]
  0059c	c1 e8 10	 shr	 eax, 16			; 00000010H
  0059f	25 ff ff 00 00	 and	 eax, 65535		; 0000ffffH
  005a4	0f b7 c8	 movzx	 ecx, ax
  005a7	83 f9 01	 cmp	 ecx, 1
  005aa	75 14		 jne	 SHORT $LN26@man_dialog

; 4084 :                {                                    // on selection change, with quickman.cfg now
; 4085 :                   new_file_entered = 0;             // available for default settings. Old Microsoft

  005ac	c7 05 00 00 00
	00 00 00 00 00	 mov	 DWORD PTR ?new_file_entered@?1??man_dialog_proc@@9@9, 0

; 4086 :                   new_file_selected = 1;            // code was dangerous (no limit to string copy size).

  005b6	c7 05 00 00 00
	00 01 00 00 00	 mov	 DWORD PTR ?new_file_selected@?1??man_dialog_proc@@9@9, 1
$LN26@man_dialog:

; 4087 :                }
; 4088 :                return TRUE;

  005c0	b8 01 00 00 00	 mov	 eax, 1
  005c5	e9 f5 06 00 00	 jmp	 $LN1@man_dialog
$LN27@man_dialog:

; 4089 : 
; 4090 :             case IDC_PALETTE:
; 4091 :             case IDC_RENDERING:
; 4092 :                if (HIWORD(wParam) == CBN_SELCHANGE)

  005ca	8b 45 10	 mov	 eax, DWORD PTR _wParam$[ebp]
  005cd	c1 e8 10	 shr	 eax, 16			; 00000010H
  005d0	25 ff ff 00 00	 and	 eax, 65535		; 0000ffffH
  005d5	0f b7 c8	 movzx	 ecx, ax
  005d8	83 f9 01	 cmp	 ecx, 1
  005db	0f 85 d8 00 00
	00		 jne	 $LN28@man_dialog

; 4093 :                {
; 4094 :                   // If palette is not one of the builtins, try loading from file
; 4095 :                   if (!get_builtin_palette())

  005e1	e8 00 00 00 00	 call	 _get_builtin_palette
  005e6	85 c0		 test	 eax, eax
  005e8	75 05		 jne	 SHORT $LN29@man_dialog

; 4096 :                      get_user_palette();

  005ea	e8 00 00 00 00	 call	 _get_user_palette
$LN29@man_dialog:

; 4097 : 
; 4098 :                   // Give warning if fast alg and normalized rendering; allow user to switch to exact first
; 4099 :                   if (LOWORD(wParam) == IDC_RENDERING)

  005ef	8b 45 10	 mov	 eax, DWORD PTR _wParam$[ebp]
  005f2	25 ff ff 00 00	 and	 eax, 65535		; 0000ffffH
  005f7	0f b7 c8	 movzx	 ecx, ax
  005fa	81 f9 04 04 00
	00		 cmp	 ecx, 1028		; 00000404H
  00600	75 0c		 jne	 SHORT $LN30@man_dialog

; 4100 :                      check_alg(hwnd);

  00602	8b 45 08	 mov	 eax, DWORD PTR _hwnd$[ebp]
  00605	50		 push	 eax
  00606	e8 00 00 00 00	 call	 _check_alg
  0060b	83 c4 04	 add	 esp, 4
$LN30@man_dialog:

; 4101 : 
; 4102 :                   // Recalculate all first if we need to
; 4103 :                   if ((status & STAT_RECALC_FOR_PALETTE) || (m->max_iters != m->max_iters_last))

  0060e	a1 00 00 00 00	 mov	 eax, DWORD PTR _status
  00613	83 e0 02	 and	 eax, 2
  00616	75 14		 jne	 SHORT $LN32@man_dialog
  00618	8b 45 a0	 mov	 eax, DWORD PTR _m$[ebp]
  0061b	8b 4d a0	 mov	 ecx, DWORD PTR _m$[ebp]
  0061e	8b 90 c0 8d 00
	00		 mov	 edx, DWORD PTR [eax+36288]
  00624	3b 91 c4 8d 00
	00		 cmp	 edx, DWORD PTR [ecx+36292]
  0062a	74 38		 je	 SHORT $LN31@man_dialog
$LN32@man_dialog:

; 4104 :                   {
; 4105 :                      update_re_im(m, m->pan_xoffs, m->pan_yoffs); // update re/im from any pan offsets and reset offsets

  0062c	8b 45 a0	 mov	 eax, DWORD PTR _m$[ebp]
  0062f	8b 88 a4 8d 00
	00		 mov	 ecx, DWORD PTR [eax+36260]
  00635	51		 push	 ecx
  00636	8b 90 a0 8d 00
	00		 mov	 edx, DWORD PTR [eax+36256]
  0063c	52		 push	 edx
  0063d	8b 45 a0	 mov	 eax, DWORD PTR _m$[ebp]
  00640	8b 88 9c 8d 00
	00		 mov	 ecx, DWORD PTR [eax+36252]
  00646	51		 push	 ecx
  00647	8b 90 98 8d 00
	00		 mov	 edx, DWORD PTR [eax+36248]
  0064d	52		 push	 edx
  0064e	8b 45 a0	 mov	 eax, DWORD PTR _m$[ebp]
  00651	50		 push	 eax
  00652	e8 00 00 00 00	 call	 _update_re_im
  00657	83 c4 14	 add	 esp, 20			; 00000014H

; 4106 :                      do_man_calculate(1);

  0065a	6a 01		 push	 1
  0065c	e8 00 00 00 00	 call	 _do_man_calculate
  00661	83 c4 04	 add	 esp, 4
$LN31@man_dialog:

; 4107 :                   }
; 4108 : 
; 4109 :                   // Apply palette to the whole image (in UL quadrant here)
; 4110 :                   apply_palette(m, quad[UL].bitmap_data, m->iter_data, m->xsize, m->ysize);

  00664	8b 45 a0	 mov	 eax, DWORD PTR _m$[ebp]
  00667	8b 88 8c 8d 00
	00		 mov	 ecx, DWORD PTR [eax+36236]
  0066d	51		 push	 ecx
  0066e	8b 55 a0	 mov	 edx, DWORD PTR _m$[ebp]
  00671	8b 82 88 8d 00
	00		 mov	 eax, DWORD PTR [edx+36232]
  00677	50		 push	 eax
  00678	8b 4d a0	 mov	 ecx, DWORD PTR _m$[ebp]
  0067b	8b 91 e0 8d 00
	00		 mov	 edx, DWORD PTR [ecx+36320]
  00681	52		 push	 edx
  00682	b8 38 00 00 00	 mov	 eax, 56			; 00000038H
  00687	6b c8 00	 imul	 ecx, eax, 0
  0068a	8b 91 1c 00 00
	00		 mov	 edx, DWORD PTR _quad[ecx+28]
  00690	52		 push	 edx
  00691	8b 45 a0	 mov	 eax, DWORD PTR _m$[ebp]
  00694	50		 push	 eax
  00695	e8 00 00 00 00	 call	 _apply_palette
  0069a	83 c4 14	 add	 esp, 20			; 00000014H

; 4111 :                   InvalidateRect(hwnd_main, NULL, 0); // cause repaint

  0069d	6a 00		 push	 0
  0069f	6a 00		 push	 0
  006a1	a1 00 00 00 00	 mov	 eax, DWORD PTR _hwnd_main
  006a6	50		 push	 eax
  006a7	ff 15 00 00 00
	00		 call	 DWORD PTR __imp__InvalidateRect@12

; 4112 :                   UpdateWindow(hwnd_main);

  006ad	a1 00 00 00 00	 mov	 eax, DWORD PTR _hwnd_main
  006b2	50		 push	 eax
  006b3	ff 15 00 00 00
	00		 call	 DWORD PTR __imp__UpdateWindow@4
$LN28@man_dialog:

; 4113 :                }
; 4114 :                return TRUE;

  006b9	b8 01 00 00 00	 mov	 eax, 1
  006be	e9 fc 05 00 00	 jmp	 $LN1@man_dialog
$LN33@man_dialog:

; 4115 : 
; 4116 :             case IDC_ALGORITHM:
; 4117 :             case IDC_PRECISION:
; 4118 :                if (HIWORD(wParam) == CBN_SELCHANGE)

  006c3	8b 45 10	 mov	 eax, DWORD PTR _wParam$[ebp]
  006c6	c1 e8 10	 shr	 eax, 16			; 00000010H
  006c9	25 ff ff 00 00	 and	 eax, 65535		; 0000ffffH
  006ce	0f b7 c8	 movzx	 ecx, ax
  006d1	83 f9 01	 cmp	 ecx, 1
  006d4	75 0c		 jne	 SHORT $LN34@man_dialog

; 4119 :                   check_alg(hwnd); // make sure CPU supports alg/precision combination

  006d6	8b 45 08	 mov	 eax, DWORD PTR _hwnd$[ebp]
  006d9	50		 push	 eax
  006da	e8 00 00 00 00	 call	 _check_alg
  006df	83 c4 04	 add	 esp, 4
$LN34@man_dialog:

; 4120 :                return TRUE;

  006e2	b8 01 00 00 00	 mov	 eax, 1
  006e7	e9 d3 05 00 00	 jmp	 $LN1@man_dialog
$LN35@man_dialog:

; 4121 : 
; 4122 :             case IDC_THREADS:
; 4123 :                if (HIWORD(wParam) == CBN_SELCHANGE)

  006ec	8b 45 10	 mov	 eax, DWORD PTR _wParam$[ebp]
  006ef	c1 e8 10	 shr	 eax, 16			; 00000010H
  006f2	25 ff ff 00 00	 and	 eax, 65535		; 0000ffffH
  006f7	0f b7 c8	 movzx	 ecx, ax
  006fa	83 f9 01	 cmp	 ecx, 1
  006fd	75 05		 jne	 SHORT $LN36@man_dialog

; 4124 :                   get_num_threads();

  006ff	e8 00 00 00 00	 call	 _get_num_threads
$LN36@man_dialog:

; 4125 :                return TRUE;

  00704	b8 01 00 00 00	 mov	 eax, 1
  00709	e9 b1 05 00 00	 jmp	 $LN1@man_dialog
$LN37@man_dialog:

; 4126 : 
; 4127 :             case IDC_SAVE_XSIZE:
; 4128 :             case IDC_SAVE_YSIZE:
; 4129 : 
; 4130 :                // Set save xsize or ysize automatically from the other if preserve aspect box is checked
; 4131 :                if (HIWORD(wParam) == EN_UPDATE)

  0070e	8b 45 10	 mov	 eax, DWORD PTR _wParam$[ebp]
  00711	c1 e8 10	 shr	 eax, 16			; 00000010H
  00714	25 ff ff 00 00	 and	 eax, 65535		; 0000ffffH
  00719	0f b7 c8	 movzx	 ecx, ax
  0071c	81 f9 00 04 00
	00		 cmp	 ecx, 1024		; 00000400H
  00722	0f 85 35 01 00
	00		 jne	 $LN45@man_dialog

; 4132 :                {
; 4133 :                   if (IsDlgButtonChecked(hwnd, IDC_ASPECT))

  00728	68 22 04 00 00	 push	 1058			; 00000422H
  0072d	8b 45 08	 mov	 eax, DWORD PTR _hwnd$[ebp]
  00730	50		 push	 eax
  00731	ff 15 00 00 00
	00		 call	 DWORD PTR __imp__IsDlgButtonChecked@8
  00737	85 c0		 test	 eax, eax
  00739	0f 84 1e 01 00
	00		 je	 $LN45@man_dialog

; 4134 :                   {
; 4135 :                      double aspect;
; 4136 :                      aspect = (double) m->xsize / (double) m->ysize;

  0073f	8b 45 a0	 mov	 eax, DWORD PTR _m$[ebp]
  00742	f2 0f 2a 80 88
	8d 00 00	 cvtsi2sd xmm0, DWORD PTR [eax+36232]
  0074a	8b 4d a0	 mov	 ecx, DWORD PTR _m$[ebp]
  0074d	f2 0f 2a 89 8c
	8d 00 00	 cvtsi2sd xmm1, DWORD PTR [ecx+36236]
  00755	f2 0f 5e c1	 divsd	 xmm0, xmm1
  00759	f2 0f 11 45 98	 movsd	 QWORD PTR _aspect$1[ebp], xmm0

; 4137 : 
; 4138 :                      // Need the ignore_ logic to prevent infinite message loops
; 4139 :                      if (LOWORD(wParam) == IDC_SAVE_XSIZE)

  0075e	8b 45 10	 mov	 eax, DWORD PTR _wParam$[ebp]
  00761	25 ff ff 00 00	 and	 eax, 65535		; 0000ffffH
  00766	0f b7 c8	 movzx	 ecx, ax
  00769	81 f9 2c 04 00
	00		 cmp	 ecx, 1068		; 0000042cH
  0076f	75 77		 jne	 SHORT $LN40@man_dialog

; 4140 :                         if (ignore_next_change != 1)

  00771	83 3d 00 00 00
	00 01		 cmp	 DWORD PTR ?ignore_next_change@?1??man_dialog_proc@@9@9, 1
  00778	74 62		 je	 SHORT $LN42@man_dialog

; 4141 :                         {
; 4142 :                            ignore_next_change = 2;

  0077a	c7 05 00 00 00
	00 02 00 00 00	 mov	 DWORD PTR ?ignore_next_change@?1??man_dialog_proc@@9@9, 2

; 4143 :                            SetDlgItemInt(hwnd, IDC_SAVE_YSIZE, (int)(0.5 + (double)

  00784	6a 00		 push	 0
  00786	6a 00		 push	 0
  00788	6a 00		 push	 0
  0078a	68 2c 04 00 00	 push	 1068			; 0000042cH
  0078f	8b 45 08	 mov	 eax, DWORD PTR _hwnd$[ebp]
  00792	50		 push	 eax
  00793	ff 15 00 00 00
	00		 call	 DWORD PTR __imp__GetDlgItemInt@16
  00799	89 85 54 ff ff
	ff		 mov	 DWORD PTR tv750[ebp], eax
  0079f	f2 0f 2a 85 54
	ff ff ff	 cvtsi2sd xmm0, DWORD PTR tv750[ebp]
  007a7	8b 8d 54 ff ff
	ff		 mov	 ecx, DWORD PTR tv750[ebp]
  007ad	c1 e9 1f	 shr	 ecx, 31			; 0000001fH
  007b0	f2 0f 58 04 cd
	00 00 00 00	 addsd	 xmm0, QWORD PTR __xmm@41f00000000000000000000000000000[ecx*8]
  007b9	f2 0f 5e 45 98	 divsd	 xmm0, QWORD PTR _aspect$1[ebp]
  007be	f2 0f 58 05 00
	00 00 00	 addsd	 xmm0, QWORD PTR __real@3fe0000000000000
  007c6	f2 0f 2c d0	 cvttsd2si edx, xmm0
  007ca	52		 push	 edx
  007cb	68 2d 04 00 00	 push	 1069			; 0000042dH
  007d0	8b 45 08	 mov	 eax, DWORD PTR _hwnd$[ebp]
  007d3	50		 push	 eax
  007d4	ff 15 00 00 00
	00		 call	 DWORD PTR __imp__SetDlgItemInt@16

; 4144 :                                          GetDlgItemInt(hwnd, IDC_SAVE_XSIZE, NULL, FALSE) / aspect), FALSE);
; 4145 :                         }

  007da	eb 0a		 jmp	 SHORT $LN43@man_dialog
$LN42@man_dialog:

; 4146 :                         else
; 4147 :                            ignore_next_change = 0;

  007dc	c7 05 00 00 00
	00 00 00 00 00	 mov	 DWORD PTR ?ignore_next_change@?1??man_dialog_proc@@9@9, 0
$LN43@man_dialog:
  007e6	eb 75		 jmp	 SHORT $LN45@man_dialog
$LN40@man_dialog:

; 4148 :                      else
; 4149 :                         if (ignore_next_change != 2)

  007e8	83 3d 00 00 00
	00 02		 cmp	 DWORD PTR ?ignore_next_change@?1??man_dialog_proc@@9@9, 2
  007ef	74 62		 je	 SHORT $LN44@man_dialog

; 4150 :                         {
; 4151 :                            ignore_next_change = 1;

  007f1	c7 05 00 00 00
	00 01 00 00 00	 mov	 DWORD PTR ?ignore_next_change@?1??man_dialog_proc@@9@9, 1

; 4152 :                            SetDlgItemInt(hwnd, IDC_SAVE_XSIZE, (int)(0.5 + (double)

  007fb	6a 00		 push	 0
  007fd	6a 00		 push	 0
  007ff	6a 00		 push	 0
  00801	68 2d 04 00 00	 push	 1069			; 0000042dH
  00806	8b 45 08	 mov	 eax, DWORD PTR _hwnd$[ebp]
  00809	50		 push	 eax
  0080a	ff 15 00 00 00
	00		 call	 DWORD PTR __imp__GetDlgItemInt@16
  00810	89 85 54 ff ff
	ff		 mov	 DWORD PTR tv758[ebp], eax
  00816	f2 0f 2a 85 54
	ff ff ff	 cvtsi2sd xmm0, DWORD PTR tv758[ebp]
  0081e	8b 8d 54 ff ff
	ff		 mov	 ecx, DWORD PTR tv758[ebp]
  00824	c1 e9 1f	 shr	 ecx, 31			; 0000001fH
  00827	f2 0f 58 04 cd
	00 00 00 00	 addsd	 xmm0, QWORD PTR __xmm@41f00000000000000000000000000000[ecx*8]
  00830	f2 0f 59 45 98	 mulsd	 xmm0, QWORD PTR _aspect$1[ebp]
  00835	f2 0f 58 05 00
	00 00 00	 addsd	 xmm0, QWORD PTR __real@3fe0000000000000
  0083d	f2 0f 2c d0	 cvttsd2si edx, xmm0
  00841	52		 push	 edx
  00842	68 2c 04 00 00	 push	 1068			; 0000042cH
  00847	8b 45 08	 mov	 eax, DWORD PTR _hwnd$[ebp]
  0084a	50		 push	 eax
  0084b	ff 15 00 00 00
	00		 call	 DWORD PTR __imp__SetDlgItemInt@16

; 4153 :                                          GetDlgItemInt(hwnd, IDC_SAVE_YSIZE, NULL, FALSE) * aspect), FALSE);
; 4154 :                         }

  00851	eb 0a		 jmp	 SHORT $LN45@man_dialog
$LN44@man_dialog:

; 4155 :                         else
; 4156 :                            ignore_next_change = 0;

  00853	c7 05 00 00 00
	00 00 00 00 00	 mov	 DWORD PTR ?ignore_next_change@?1??man_dialog_proc@@9@9, 0
$LN45@man_dialog:

; 4157 :                   }
; 4158 :                }
; 4159 :                return TRUE;

  0085d	b8 01 00 00 00	 mov	 eax, 1
  00862	e9 58 04 00 00	 jmp	 $LN1@man_dialog
$LN46@man_dialog:

; 4160 : 
; 4161 :             case ID_HOME:
; 4162 :                set_home_image();   // Reset to base image coordinates; deliberate fallthru

  00867	e8 00 00 00 00	 call	 _set_home_image

; 4163 :                autoreset_settings(&cfg_settings);  // only do this on home or log next/prev, not recalculation

  0086c	68 00 00 00 00	 push	 OFFSET _cfg_settings
  00871	e8 00 00 00 00	 call	 _autoreset_settings
  00876	83 c4 04	 add	 esp, 4

; 4164 :                resize_window();

  00879	e8 00 00 00 00	 call	 _resize_window
$LN47@man_dialog:

; 4165 : 
; 4166 :             case ID_CALCULATE:
; 4167 : 
; 4168 :                do_rtzoom = prev_do_rtzoom = 0;     // stop any rt zoom in progress

  0087e	c7 05 00 00 00
	00 00 00 00 00	 mov	 DWORD PTR _prev_do_rtzoom, 0
  00888	a1 00 00 00 00	 mov	 eax, DWORD PTR _prev_do_rtzoom
  0088d	a3 00 00 00 00	 mov	 DWORD PTR _do_rtzoom, eax

; 4169 :                update_re_im(m, m->pan_xoffs, m->pan_yoffs); // update re/im from any pan offsets and reset offsets

  00892	8b 45 a0	 mov	 eax, DWORD PTR _m$[ebp]
  00895	8b 88 a4 8d 00
	00		 mov	 ecx, DWORD PTR [eax+36260]
  0089b	51		 push	 ecx
  0089c	8b 90 a0 8d 00
	00		 mov	 edx, DWORD PTR [eax+36256]
  008a2	52		 push	 edx
  008a3	8b 45 a0	 mov	 eax, DWORD PTR _m$[ebp]
  008a6	8b 88 9c 8d 00
	00		 mov	 ecx, DWORD PTR [eax+36252]
  008ac	51		 push	 ecx
  008ad	8b 90 98 8d 00
	00		 mov	 edx, DWORD PTR [eax+36248]
  008b3	52		 push	 edx
  008b4	8b 45 a0	 mov	 eax, DWORD PTR _m$[ebp]
  008b7	50		 push	 eax
  008b8	e8 00 00 00 00	 call	 _update_re_im
  008bd	83 c4 14	 add	 esp, 20			; 00000014H

; 4170 :                reset_pan_state();                  // reset pan filters and movement state

  008c0	e8 00 00 00 00	 call	 _reset_pan_state

; 4171 :                get_pan_steps(NULL, NULL, 0);       // reset any pan lock

  008c5	6a 00		 push	 0
  008c7	6a 00		 push	 0
  008c9	6a 00		 push	 0
  008cb	e8 00 00 00 00	 call	 _get_pan_steps
  008d0	83 c4 0c	 add	 esp, 12			; 0000000cH

; 4172 :                print_palette_status();

  008d3	e8 00 00 00 00	 call	 _print_palette_status

; 4173 :                do_man_calculate(1);  // calculate all pixels, update image info

  008d8	6a 01		 push	 1
  008da	e8 00 00 00 00	 call	 _do_man_calculate
  008df	83 c4 04	 add	 esp, 4

; 4174 :                SetFocus(hwnd_main);  // allow arrow keys to work immediately for panning

  008e2	a1 00 00 00 00	 mov	 eax, DWORD PTR _hwnd_main
  008e7	50		 push	 eax
  008e8	ff 15 00 00 00
	00		 call	 DWORD PTR __imp__SetFocus@4

; 4175 :                return TRUE;          // set focus AFTER calculating, or you get an annoying blink

  008ee	b8 01 00 00 00	 mov	 eax, 1
  008f3	e9 c7 03 00 00	 jmp	 $LN1@man_dialog
$LN48@man_dialog:

; 4176 : 
; 4177 :             case ID_LOG_IMAGE:
; 4178 :             case ID_LOG_PREV:
; 4179 :             case ID_LOG_NEXT:
; 4180 : 
; 4181 :                // Get the current filename
; 4182 :                GetDlgItemText(hwnd, IDC_LOGFILE, logfile, sizeof(logfile));

  008f8	68 00 01 00 00	 push	 256			; 00000100H
  008fd	68 00 00 00 00	 push	 OFFSET _logfile
  00902	68 07 04 00 00	 push	 1031			; 00000407H
  00907	8b 45 08	 mov	 eax, DWORD PTR _hwnd$[ebp]
  0090a	50		 push	 eax
  0090b	ff 15 00 00 00
	00		 call	 DWORD PTR __imp__GetDlgItemTextA@16

; 4183 : 
; 4184 :                // If it's new, read it. If it was a newly entered filename, add it to the list.
; 4185 :                if (new_file_entered || new_file_selected)

  00911	83 3d 00 00 00
	00 00		 cmp	 DWORD PTR ?new_file_entered@?1??man_dialog_proc@@9@9, 0
  00918	75 09		 jne	 SHORT $LN50@man_dialog
  0091a	83 3d 00 00 00
	00 00		 cmp	 DWORD PTR ?new_file_selected@?1??man_dialog_proc@@9@9, 0
  00921	74 4d		 je	 SHORT $LN52@man_dialog
$LN50@man_dialog:

; 4186 :                {
; 4187 :                   if (LOWORD(wParam) != ID_LOG_IMAGE)

  00923	8b 45 10	 mov	 eax, DWORD PTR _wParam$[ebp]
  00926	25 ff ff 00 00	 and	 eax, 65535		; 0000ffffH
  0092b	0f b7 c8	 movzx	 ecx, ax
  0092e	83 f9 0e	 cmp	 ecx, 14			; 0000000eH
  00931	74 19		 je	 SHORT $LN51@man_dialog

; 4188 :                   {
; 4189 :                      log_read(logfile, "", 1);     // read logfile into array

  00933	6a 01		 push	 1
  00935	68 00 00 00 00	 push	 OFFSET $SG42031
  0093a	68 00 00 00 00	 push	 OFFSET _logfile
  0093f	e8 00 00 00 00	 call	 _log_read
  00944	83 c4 0c	 add	 esp, 12			; 0000000cH

; 4190 :                      reset_thread_load_counters(); // for testing load-balancing alg

  00947	e8 00 00 00 00	 call	 _reset_thread_load_counters
$LN51@man_dialog:

; 4191 :                   }
; 4192 :                   if (new_file_entered)

  0094c	83 3d 00 00 00
	00 00		 cmp	 DWORD PTR ?new_file_entered@?1??man_dialog_proc@@9@9, 0
  00953	74 1b		 je	 SHORT $LN52@man_dialog

; 4193 :                      SendDlgItemMessage(hwnd, IDC_LOGFILE, CB_ADDSTRING, 0, (LPARAM) logfile);

  00955	68 00 00 00 00	 push	 OFFSET _logfile
  0095a	6a 00		 push	 0
  0095c	68 43 01 00 00	 push	 323			; 00000143H
  00961	68 07 04 00 00	 push	 1031			; 00000407H
  00966	8b 45 08	 mov	 eax, DWORD PTR _hwnd$[ebp]
  00969	50		 push	 eax
  0096a	ff 15 00 00 00
	00		 call	 DWORD PTR __imp__SendDlgItemMessageA@20
$LN52@man_dialog:

; 4194 :                }
; 4195 :                if (LOWORD(wParam) == ID_LOG_IMAGE)

  00970	8b 45 10	 mov	 eax, DWORD PTR _wParam$[ebp]
  00973	25 ff ff 00 00	 and	 eax, 65535		; 0000ffffH
  00978	0f b7 c8	 movzx	 ecx, ax
  0097b	83 f9 0e	 cmp	 ecx, 14			; 0000000eH
  0097e	75 62		 jne	 SHORT $LN53@man_dialog

; 4196 :                {
; 4197 :                   // Need to update re/im with panning offsets, or logged coordinates will be wrong!
; 4198 :                   // Added this line for v1.03 bug fix
; 4199 :                   update_re_im(m, m->pan_xoffs, m->pan_yoffs);

  00980	8b 45 a0	 mov	 eax, DWORD PTR _m$[ebp]
  00983	8b 88 a4 8d 00
	00		 mov	 ecx, DWORD PTR [eax+36260]
  00989	51		 push	 ecx
  0098a	8b 90 a0 8d 00
	00		 mov	 edx, DWORD PTR [eax+36256]
  00990	52		 push	 edx
  00991	8b 45 a0	 mov	 eax, DWORD PTR _m$[ebp]
  00994	8b 88 9c 8d 00
	00		 mov	 ecx, DWORD PTR [eax+36252]
  0099a	51		 push	 ecx
  0099b	8b 90 98 8d 00
	00		 mov	 edx, DWORD PTR [eax+36248]
  009a1	52		 push	 edx
  009a2	8b 45 a0	 mov	 eax, DWORD PTR _m$[ebp]
  009a5	50		 push	 eax
  009a6	e8 00 00 00 00	 call	 _update_re_im
  009ab	83 c4 14	 add	 esp, 20			; 00000014H

; 4200 :                   log_update(logfile, new_file_entered | new_file_selected); // reset pos if new file

  009ae	a1 00 00 00 00	 mov	 eax, DWORD PTR ?new_file_entered@?1??man_dialog_proc@@9@9
  009b3	0b 05 00 00 00
	00		 or	 eax, DWORD PTR ?new_file_selected@?1??man_dialog_proc@@9@9
  009b9	50		 push	 eax
  009ba	68 00 00 00 00	 push	 OFFSET _logfile
  009bf	e8 00 00 00 00	 call	 _log_update
  009c4	83 c4 08	 add	 esp, 8

; 4201 :                   print_status_line(0);                 // update current/total number of log images

  009c7	6a 00		 push	 0
  009c9	e8 00 00 00 00	 call	 _print_status_line
  009ce	83 c4 04	 add	 esp, 4

; 4202 :                   SetWindowText(hwnd_status, "Logged"); // Ok if this stays till next calculation

  009d1	68 00 00 00 00	 push	 OFFSET $SG42034
  009d6	a1 00 00 00 00	 mov	 eax, DWORD PTR _hwnd_status
  009db	50		 push	 eax
  009dc	ff 15 00 00 00
	00		 call	 DWORD PTR __imp__SetWindowTextA@8
$LN53@man_dialog:

; 4203 :                }
; 4204 :                new_file_entered = 0;

  009e2	c7 05 00 00 00
	00 00 00 00 00	 mov	 DWORD PTR ?new_file_entered@?1??man_dialog_proc@@9@9, 0

; 4205 :                new_file_selected = 0;

  009ec	c7 05 00 00 00
	00 00 00 00 00	 mov	 DWORD PTR ?new_file_selected@?1??man_dialog_proc@@9@9, 0

; 4206 : 
; 4207 :                // If user wants a new log image...
; 4208 :                if ( (LOWORD(wParam) == ID_LOG_NEXT || LOWORD(wParam == ID_LOG_PREV)) && log_count)

  009f6	8b 45 10	 mov	 eax, DWORD PTR _wParam$[ebp]
  009f9	25 ff ff 00 00	 and	 eax, 65535		; 0000ffffH
  009fe	0f b7 c8	 movzx	 ecx, ax
  00a01	83 f9 08	 cmp	 ecx, 8
  00a04	74 32		 je	 SHORT $LN56@man_dialog
  00a06	83 7d 10 09	 cmp	 DWORD PTR _wParam$[ebp], 9
  00a0a	75 0c		 jne	 SHORT $LN72@man_dialog
  00a0c	c7 85 54 ff ff
	ff 01 00 00 00	 mov	 DWORD PTR tv523[ebp], 1
  00a16	eb 0a		 jmp	 SHORT $LN73@man_dialog
$LN72@man_dialog:
  00a18	c7 85 54 ff ff
	ff 00 00 00 00	 mov	 DWORD PTR tv523[ebp], 0
$LN73@man_dialog:
  00a22	8b 85 54 ff ff
	ff		 mov	 eax, DWORD PTR tv523[ebp]
  00a28	25 ff ff 00 00	 and	 eax, 65535		; 0000ffffH
  00a2d	0f b7 c8	 movzx	 ecx, ax
  00a30	85 c9		 test	 ecx, ecx
  00a32	0f 84 8e 01 00
	00		 je	 $LN54@man_dialog
$LN56@man_dialog:
  00a38	83 3d 00 00 00
	00 00		 cmp	 DWORD PTR _log_count, 0
  00a3f	0f 84 81 01 00
	00		 je	 $LN54@man_dialog

; 4209 :                {
; 4210 :                   autoreset_settings(&cfg_settings);           // Autoreset any previous settings that need it

  00a45	68 00 00 00 00	 push	 OFFSET _cfg_settings
  00a4a	e8 00 00 00 00	 call	 _autoreset_settings
  00a4f	83 c4 04	 add	 esp, 4

; 4211 :                   m->pan_xoffs = 0;                            // Clear any pan offsets (no need to update

  00a52	8b 45 a0	 mov	 eax, DWORD PTR _m$[ebp]
  00a55	c7 80 98 8d 00
	00 00 00 00 00	 mov	 DWORD PTR [eax+36248], 0
  00a5f	c7 80 9c 8d 00
	00 00 00 00 00	 mov	 DWORD PTR [eax+36252], 0

; 4212 :                   m->pan_yoffs = 0;                            // re/im as they are reset from logfile)

  00a69	8b 45 a0	 mov	 eax, DWORD PTR _m$[ebp]
  00a6c	c7 80 a0 8d 00
	00 00 00 00 00	 mov	 DWORD PTR [eax+36256], 0
  00a76	c7 80 a4 8d 00
	00 00 00 00 00	 mov	 DWORD PTR [eax+36260], 0

; 4213 :                   if ((e = log_get(LOWORD(wParam) == ID_LOG_NEXT)) == NULL)  // get next/prev image from logfile array

  00a80	8b 45 10	 mov	 eax, DWORD PTR _wParam$[ebp]
  00a83	25 ff ff 00 00	 and	 eax, 65535		; 0000ffffH
  00a88	0f b7 c8	 movzx	 ecx, ax
  00a8b	83 f9 08	 cmp	 ecx, 8
  00a8e	75 0c		 jne	 SHORT $LN74@man_dialog
  00a90	c7 85 54 ff ff
	ff 01 00 00 00	 mov	 DWORD PTR tv537[ebp], 1
  00a9a	eb 0a		 jmp	 SHORT $LN75@man_dialog
$LN74@man_dialog:
  00a9c	c7 85 54 ff ff
	ff 00 00 00 00	 mov	 DWORD PTR tv537[ebp], 0
$LN75@man_dialog:
  00aa6	8b 95 54 ff ff
	ff		 mov	 edx, DWORD PTR tv537[ebp]
  00aac	52		 push	 edx
  00aad	e8 00 00 00 00	 call	 _log_get
  00ab2	83 c4 04	 add	 esp, 4
  00ab5	89 45 a4	 mov	 DWORD PTR _e$[ebp], eax
  00ab8	83 7d a4 00	 cmp	 DWORD PTR _e$[ebp], 0
  00abc	75 0a		 jne	 SHORT $LN57@man_dialog

; 4214 :                      return TRUE;

  00abe	b8 01 00 00 00	 mov	 eax, 1
  00ac3	e9 f7 01 00 00	 jmp	 $LN1@man_dialog
$LN57@man_dialog:

; 4215 : 
; 4216 :                   // Update any new settings
; 4217 :                   copy_changed_settings(&cfg_settings, &e->log_settings, 0); // 0 = don't copy to default_val

  00ac8	6a 00		 push	 0
  00aca	8b 45 a4	 mov	 eax, DWORD PTR _e$[ebp]
  00acd	83 c0 20	 add	 eax, 32			; 00000020H
  00ad0	50		 push	 eax
  00ad1	68 00 00 00 00	 push	 OFFSET _cfg_settings
  00ad6	e8 00 00 00 00	 call	 _copy_changed_settings
  00adb	83 c4 0c	 add	 esp, 12			; 0000000cH

; 4218 : 
; 4219 :                   // Update sliders, info box, iters, and palette
; 4220 :                   setup_sliders();

  00ade	e8 00 00 00 00	 call	 _setup_sliders

; 4221 :                   update_iters(0, 0);

  00ae3	6a 00		 push	 0
  00ae5	6a 00		 push	 0
  00ae7	e8 00 00 00 00	 call	 _update_iters
  00aec	83 c4 08	 add	 esp, 8

; 4222 :                   UpdateWindow(hwnd_iters);

  00aef	a1 00 00 00 00	 mov	 eax, DWORD PTR _hwnd_iters
  00af4	50		 push	 eax
  00af5	ff 15 00 00 00
	00		 call	 DWORD PTR __imp__UpdateWindow@4

; 4223 : 
; 4224 :                   do_rtzoom = prev_do_rtzoom = 0; // stop any rt zoom in progress

  00afb	c7 05 00 00 00
	00 00 00 00 00	 mov	 DWORD PTR _prev_do_rtzoom, 0
  00b05	a1 00 00 00 00	 mov	 eax, DWORD PTR _prev_do_rtzoom
  00b0a	a3 00 00 00 00	 mov	 DWORD PTR _do_rtzoom, eax

; 4225 :                   reset_pan_state();              // reset pan filters and movement state

  00b0f	e8 00 00 00 00	 call	 _reset_pan_state

; 4226 :                   get_pan_steps(NULL, NULL, cfg_settings.pan_key.val); // set pan lock (or turn it off if pan_key is 0)

  00b14	a1 18 00 00 00	 mov	 eax, DWORD PTR _cfg_settings+24
  00b19	50		 push	 eax
  00b1a	6a 00		 push	 0
  00b1c	6a 00		 push	 0
  00b1e	e8 00 00 00 00	 call	 _get_pan_steps
  00b23	83 c4 0c	 add	 esp, 12			; 0000000cH

; 4227 : 
; 4228 :                   // Change palette, max iters color, and inversion status if not locked
; 4229 :                   if (!(status & STAT_PALETTE_LOCKED))

  00b26	a1 00 00 00 00	 mov	 eax, DWORD PTR _status
  00b2b	83 e0 20	 and	 eax, 32			; 00000020H
  00b2e	75 54		 jne	 SHORT $LN59@man_dialog

; 4230 :                   {
; 4231 :                      m->pal_xor = cfg_settings.pal_xor.val;

  00b30	8b 45 a0	 mov	 eax, DWORD PTR _m$[ebp]
  00b33	8b 0d 90 00 00
	00		 mov	 ecx, DWORD PTR _cfg_settings+144
  00b39	89 88 fc 8d 00
	00		 mov	 DWORD PTR [eax+36348], ecx

; 4232 :                      m->max_iters_color = cfg_settings.max_iters_color.val;

  00b3f	8b 45 a0	 mov	 eax, DWORD PTR _m$[ebp]
  00b42	8b 0d 7c 00 00
	00		 mov	 ecx, DWORD PTR _cfg_settings+124
  00b48	89 88 00 8e 00
	00		 mov	 DWORD PTR [eax+36352], ecx

; 4233 : 
; 4234 :                      SendDlgItemMessage(hwnd, IDC_PALETTE, CB_SETCURSEL, m->palette, 0);

  00b4e	6a 00		 push	 0
  00b50	8b 45 a0	 mov	 eax, DWORD PTR _m$[ebp]
  00b53	8b 88 f4 8d 00
	00		 mov	 ecx, DWORD PTR [eax+36340]
  00b59	51		 push	 ecx
  00b5a	68 4e 01 00 00	 push	 334			; 0000014eH
  00b5f	68 03 04 00 00	 push	 1027			; 00000403H
  00b64	8b 55 08	 mov	 edx, DWORD PTR _hwnd$[ebp]
  00b67	52		 push	 edx
  00b68	ff 15 00 00 00
	00		 call	 DWORD PTR __imp__SendDlgItemMessageA@20

; 4235 :                      if (m->palette >= num_builtin_palettes) // if user palette, read it in

  00b6e	8b 45 a0	 mov	 eax, DWORD PTR _m$[ebp]
  00b71	8b 88 f4 8d 00
	00		 mov	 ecx, DWORD PTR [eax+36340]
  00b77	3b 0d 00 00 00
	00		 cmp	 ecx, DWORD PTR _num_builtin_palettes
  00b7d	72 05		 jb	 SHORT $LN59@man_dialog

; 4236 :                         get_user_palette();

  00b7f	e8 00 00 00 00	 call	 _get_user_palette
$LN59@man_dialog:

; 4237 :                   }
; 4238 : 
; 4239 :                   print_palette_status();

  00b84	e8 00 00 00 00	 call	 _print_palette_status

; 4240 :                   resize_window();

  00b89	e8 00 00 00 00	 call	 _resize_window

; 4241 : 
; 4242 :                   if (!cfg_settings.zoom_in_out.val) // If not zooming, just calculate

  00b8e	83 3d 40 00 00
	00 00		 cmp	 DWORD PTR _cfg_settings+64, 0
  00b95	75 2d		 jne	 SHORT $LN60@man_dialog

; 4243 :                   {
; 4244 :                      do_man_calculate(1);  // calculate all pixels, update image info

  00b97	6a 01		 push	 1
  00b99	e8 00 00 00 00	 call	 _do_man_calculate
  00b9e	83 c4 04	 add	 esp, 4

; 4245 :                      status &= ~STAT_RECALC_IMMEDIATELY; // already calculated: don't need to do again

  00ba1	a1 00 00 00 00	 mov	 eax, DWORD PTR _status
  00ba6	83 e0 f7	 and	 eax, -9			; fffffff7H
  00ba9	a3 00 00 00 00	 mov	 DWORD PTR _status, eax

; 4246 :                      SetFocus(hwnd_main);

  00bae	a1 00 00 00 00	 mov	 eax, DWORD PTR _hwnd_main
  00bb3	50		 push	 eax
  00bb4	ff 15 00 00 00
	00		 call	 DWORD PTR __imp__SetFocus@4

; 4247 :                      return TRUE;

  00bba	b8 01 00 00 00	 mov	 eax, 1
  00bbf	e9 fb 00 00 00	 jmp	 $LN1@man_dialog
$LN60@man_dialog:

; 4248 :                   }
; 4249 :                   else
; 4250 :                   {
; 4251 :                      // Else fallthrough to do realtime zoom in (later need zoom out also)
; 4252 :                   }
; 4253 :                }

  00bc4	eb 0a		 jmp	 SHORT $LN55@man_dialog
$LN54@man_dialog:

; 4254 :                else
; 4255 :                   return TRUE;

  00bc6	b8 01 00 00 00	 mov	 eax, 1
  00bcb	e9 ef 00 00 00	 jmp	 $LN1@man_dialog
$LN55@man_dialog:

; 4256 : 
; 4257 :             case ID_ZOOM: // Do a realtime zoom in to the current image
; 4258 :                update_re_im(m, m->pan_xoffs, m->pan_yoffs); // update re/im from any pan offsets and reset offsets

  00bd0	8b 45 a0	 mov	 eax, DWORD PTR _m$[ebp]
  00bd3	8b 88 a4 8d 00
	00		 mov	 ecx, DWORD PTR [eax+36260]
  00bd9	51		 push	 ecx
  00bda	8b 90 a0 8d 00
	00		 mov	 edx, DWORD PTR [eax+36256]
  00be0	52		 push	 edx
  00be1	8b 45 a0	 mov	 eax, DWORD PTR _m$[ebp]
  00be4	8b 88 9c 8d 00
	00		 mov	 ecx, DWORD PTR [eax+36252]
  00bea	51		 push	 ecx
  00beb	8b 90 98 8d 00
	00		 mov	 edx, DWORD PTR [eax+36248]
  00bf1	52		 push	 edx
  00bf2	8b 45 a0	 mov	 eax, DWORD PTR _m$[ebp]
  00bf5	50		 push	 eax
  00bf6	e8 00 00 00 00	 call	 _update_re_im
  00bfb	83 c4 14	 add	 esp, 20			; 00000014H

; 4259 :                reset_fps_values();

  00bfe	e8 00 00 00 00	 call	 _reset_fps_values

; 4260 :                reset_thread_load_counters();

  00c03	e8 00 00 00 00	 call	 _reset_thread_load_counters

; 4261 :                zoom_start_time = get_timer();

  00c08	e8 00 00 00 00	 call	 _get_timer
  00c0d	a3 00 00 00 00	 mov	 DWORD PTR _zoom_start_time, eax

; 4262 :                zoom_start_mag = m->mag;

  00c12	8b 45 a0	 mov	 eax, DWORD PTR _m$[ebp]
  00c15	f2 0f 10 80 b8
	8d 00 00	 movsd	 xmm0, QWORD PTR [eax+36280]
  00c1d	f2 0f 11 05 00
	00 00 00	 movsd	 QWORD PTR _zoom_start_mag, xmm0

; 4263 :                m->mag = MAG_MIN;

  00c25	8b 45 a0	 mov	 eax, DWORD PTR _m$[ebp]
  00c28	f2 0f 10 05 00
	00 00 00	 movsd	 xmm0, QWORD PTR __real@3f947ae147ae147b
  00c30	f2 0f 11 80 b8
	8d 00 00	 movsd	 QWORD PTR [eax+36280], xmm0

; 4264 :                do_rtzoom = RTZOOM_IN | RTZOOM_WITH_BUTTON;

  00c38	c7 05 00 00 00
	00 05 00 00 00	 mov	 DWORD PTR _do_rtzoom, 5

; 4265 :                return TRUE;

  00c42	b8 01 00 00 00	 mov	 eax, 1
  00c47	eb 76		 jmp	 SHORT $LN1@man_dialog
$LN63@man_dialog:

; 4266 : 
; 4267 :             case ID_FULLSCREEN:
; 4268 :                toggle_fullscreen();

  00c49	e8 00 00 00 00	 call	 _toggle_fullscreen

; 4269 :                return TRUE;

  00c4e	b8 01 00 00 00	 mov	 eax, 1
  00c53	eb 6a		 jmp	 SHORT $LN1@man_dialog
$LN64@man_dialog:

; 4270 : 
; 4271 :             // case ID_SLIDESHOW:
; 4272 :             // case ID_OPTIONS:
; 4273 :                // not_implemented_yet();
; 4274 :                // return TRUE;
; 4275 : 
; 4276 :             case ID_SAVE_IMAGE:
; 4277 :                if (!(status & STAT_DOING_SAVE))

  00c55	a1 00 00 00 00	 mov	 eax, DWORD PTR _status
  00c5a	25 80 00 00 00	 and	 eax, 128		; 00000080H
  00c5f	75 21		 jne	 SHORT $LN65@man_dialog

; 4278 :                {
; 4279 :                   status |= STAT_DOING_SAVE; // prevent re-entering function when already saving

  00c61	a1 00 00 00 00	 mov	 eax, DWORD PTR _status
  00c66	0d 80 00 00 00	 or	 eax, 128		; 00000080H
  00c6b	a3 00 00 00 00	 mov	 DWORD PTR _status, eax

; 4280 : 
; 4281 :                   // With just WT_EXECUTEDEFAULT here (by accident), got strange behavior- sometimes
; 4282 :                   // wouldn't save (created a 0K file with no error indication or status update).
; 4283 :                   // Hard to reproduce. With these two, seems ok. WT_EXECUTEINIOTHREAD necessary?
; 4284 :                   QueueUserWorkItem(do_save, NULL, WT_EXECUTELONGFUNCTION | WT_EXECUTEINIOTHREAD |

  00c70	68 11 00 43 00	 push	 4390929			; 00430011H
  00c75	6a 00		 push	 0
  00c77	68 00 00 00 00	 push	 OFFSET _do_save@4
  00c7c	ff 15 00 00 00
	00		 call	 DWORD PTR __imp__QueueUserWorkItem@12
$LN65@man_dialog:

; 4285 :                                             (MAX_QUEUE_THREADS << 16));
; 4286 :                }
; 4287 :                return TRUE;

  00c82	b8 01 00 00 00	 mov	 eax, 1
  00c87	eb 36		 jmp	 SHORT $LN1@man_dialog
$LN66@man_dialog:

; 4288 : 
; 4289 :             case ID_HELP_BUTTON: // MS won't generate ID_HELP
; 4290 : 
; 4291 :                // Have to do this in a separate thread just to keep the messagebox from
; 4292 :                // blocking my main window...
; 4293 : 
; 4294 :                if (!(status & STAT_HELP_SHOWING))  // don't show help box if it's already showing

  00c89	a1 00 00 00 00	 mov	 eax, DWORD PTR _status
  00c8e	83 e0 40	 and	 eax, 64			; 00000040H
  00c91	75 1f		 jne	 SHORT $LN67@man_dialog

; 4295 :                {
; 4296 :                   status |= STAT_HELP_SHOWING;

  00c93	a1 00 00 00 00	 mov	 eax, DWORD PTR _status
  00c98	83 c8 40	 or	 eax, 64			; 00000040H
  00c9b	a3 00 00 00 00	 mov	 DWORD PTR _status, eax

; 4297 :                   QueueUserWorkItem(show_help, NULL, WT_EXECUTELONGFUNCTION | (MAX_QUEUE_THREADS << 16));

  00ca0	68 10 00 43 00	 push	 4390928			; 00430010H
  00ca5	6a 00		 push	 0
  00ca7	68 00 00 00 00	 push	 OFFSET _show_help@4
  00cac	ff 15 00 00 00
	00		 call	 DWORD PTR __imp__QueueUserWorkItem@12
$LN67@man_dialog:

; 4298 :                }
; 4299 :                return TRUE;

  00cb2	b8 01 00 00 00	 mov	 eax, 1
  00cb7	eb 06		 jmp	 SHORT $LN1@man_dialog
$LN68@man_dialog:

; 4300 : 
; 4301 :             default:
; 4302 :                return FALSE;

  00cb9	33 c0		 xor	 eax, eax
  00cbb	eb 02		 jmp	 SHORT $LN1@man_dialog
$LN2@man_dialog:

; 4303 :          }
; 4304 :          break;
; 4305 : 
; 4306 :       case WM_CLOSE:    // Never close or destroy this dialog
; 4307 :          break;
; 4308 :       case WM_DESTROY:
; 4309 :          break;
; 4310 :    }
; 4311 :    return FALSE; // return FALSE if we didn't process the message (exceptions for INITDIALOG) otherwise TRUE

  00cbd	33 c0		 xor	 eax, eax
$LN1@man_dialog:

; 4312 : }

  00cbf	5f		 pop	 edi
  00cc0	5e		 pop	 esi
  00cc1	5b		 pop	 ebx
  00cc2	8b e5		 mov	 esp, ebp
  00cc4	5d		 pop	 ebp
  00cc5	c2 10 00	 ret	 16			; 00000010H
$LN79@man_dialog:
  00cc8	00 00 00 00	 DD	 $LN11@man_dialog
  00ccc	00 00 00 00	 DD	 $LN23@man_dialog
  00cd0	00 00 00 00	 DD	 $LN2@man_dialog
  00cd4	00 00 00 00	 DD	 $LN2@man_dialog
  00cd8	00 00 00 00	 DD	 $LN20@man_dialog
  00cdc	00 00 00 00	 DD	 $LN15@man_dialog
$LN80@man_dialog:
  00ce0	00 00 00 00	 DD	 $LN48@man_dialog
  00ce4	00 00 00 00	 DD	 $LN55@man_dialog
  00ce8	00 00 00 00	 DD	 $LN47@man_dialog
  00cec	00 00 00 00	 DD	 $LN63@man_dialog
  00cf0	00 00 00 00	 DD	 $LN46@man_dialog
  00cf4	00 00 00 00	 DD	 $LN64@man_dialog
  00cf8	00 00 00 00	 DD	 $LN68@man_dialog
$LN77@man_dialog:
  00cfc	00		 DB	 0
  00cfd	00		 DB	 0
  00cfe	06		 DB	 6
  00cff	01		 DB	 1
  00d00	02		 DB	 2
  00d01	03		 DB	 3
  00d02	00		 DB	 0
  00d03	06		 DB	 6
  00d04	04		 DB	 4
  00d05	06		 DB	 6
  00d06	06		 DB	 6
  00d07	06		 DB	 6
  00d08	05		 DB	 5
  00d09	0f 1f 00	 npad	 3
$LN81@man_dialog:
  00d0c	00 00 00 00	 DD	 $LN27@man_dialog
  00d10	00 00 00 00	 DD	 $LN33@man_dialog
  00d14	00 00 00 00	 DD	 $LN35@man_dialog
  00d18	00 00 00 00	 DD	 $LN24@man_dialog
  00d1c	00 00 00 00	 DD	 $LN66@man_dialog
  00d20	00 00 00 00	 DD	 $LN37@man_dialog
  00d24	00 00 00 00	 DD	 $LN68@man_dialog
$LN78@man_dialog:
  00d28	00		 DB	 0
  00d29	00		 DB	 0
  00d2a	01		 DB	 1
  00d2b	02		 DB	 2
  00d2c	03		 DB	 3
  00d2d	06		 DB	 6
  00d2e	06		 DB	 6
  00d2f	06		 DB	 6
  00d30	06		 DB	 6
  00d31	06		 DB	 6
  00d32	06		 DB	 6
  00d33	06		 DB	 6
  00d34	06		 DB	 6
  00d35	06		 DB	 6
  00d36	06		 DB	 6
  00d37	06		 DB	 6
  00d38	06		 DB	 6
  00d39	06		 DB	 6
  00d3a	06		 DB	 6
  00d3b	06		 DB	 6
  00d3c	06		 DB	 6
  00d3d	06		 DB	 6
  00d3e	06		 DB	 6
  00d3f	06		 DB	 6
  00d40	06		 DB	 6
  00d41	04		 DB	 4
  00d42	06		 DB	 6
  00d43	06		 DB	 6
  00d44	06		 DB	 6
  00d45	06		 DB	 6
  00d46	06		 DB	 6
  00d47	06		 DB	 6
  00d48	06		 DB	 6
  00d49	06		 DB	 6
  00d4a	06		 DB	 6
  00d4b	06		 DB	 6
  00d4c	06		 DB	 6
  00d4d	06		 DB	 6
  00d4e	06		 DB	 6
  00d4f	06		 DB	 6
  00d50	06		 DB	 6
  00d51	05		 DB	 5
  00d52	05		 DB	 5
_man_dialog_proc@16 ENDP
_TEXT	ENDS
; Function compile flags: /Odtp /ZI
; File d:\stanley\desktop\quickman_v110\source\quickman.c
;	COMDAT _do_save@4
_TEXT	SEGMENT
tv395 = -376						; size = 8
tv291 = -376						; size = 8
tv277 = -376						; size = 8
tv144 = -372						; size = 4
_s$ = -304						; size = 4
_m$ = -300						; size = 4
_t$ = -296						; size = 4
_start_time$ = -292					; size = 4
_fp$ = -288						; size = 4
_c$ = -284						; size = 256
_ptr4$ = -28						; size = 4
_ptr3$ = -24						; size = 4
_save_ysize$ = -20					; size = 4
_save_xsize$ = -16					; size = 4
_n$ = -12						; size = 4
_j$ = -8						; size = 4
_i$ = -4						; size = 4
_param$ = 8						; size = 4
_do_save@4 PROC						; COMDAT

; 3801 : {

  00000	55		 push	 ebp
  00001	8b ec		 mov	 ebp, esp
  00003	81 ec 78 01 00
	00		 sub	 esp, 376		; 00000178H
  00009	53		 push	 ebx
  0000a	56		 push	 esi
  0000b	57		 push	 edi

; 3802 :    int i, j, n, save_xsize, save_ysize;
; 3803 :    unsigned char *ptr3, *ptr4, c[256];
; 3804 :    FILE *fp;
; 3805 : 
; 3806 :    TIME_UNIT start_time, t;
; 3807 :    man_calc_struct *m, *s;
; 3808 : 
; 3809 :    m = &main_man_calc_struct;

  0000c	c7 85 d4 fe ff
	ff 00 00 00 00	 mov	 DWORD PTR _m$[ebp], OFFSET _main_man_calc_struct

; 3810 :    s = &save_man_calc_struct;

  00016	c7 85 d0 fe ff
	ff 00 00 00 00	 mov	 DWORD PTR _s$[ebp], OFFSET _save_man_calc_struct

; 3811 : 
; 3812 :    // Get sizes for image save, and clip
; 3813 :    if ((save_xsize = GetDlgItemInt(hwnd_dialog, IDC_SAVE_XSIZE, NULL, FALSE)) < MIN_SIZE)

  00020	6a 00		 push	 0
  00022	6a 00		 push	 0
  00024	68 2c 04 00 00	 push	 1068			; 0000042cH
  00029	a1 00 00 00 00	 mov	 eax, DWORD PTR _hwnd_dialog
  0002e	50		 push	 eax
  0002f	ff 15 00 00 00
	00		 call	 DWORD PTR __imp__GetDlgItemInt@16
  00035	89 45 f0	 mov	 DWORD PTR _save_xsize$[ebp], eax
  00038	83 7d f0 04	 cmp	 DWORD PTR _save_xsize$[ebp], 4
  0003c	7d 07		 jge	 SHORT $LN8@do_save

; 3814 :       save_xsize = MIN_SIZE;

  0003e	c7 45 f0 04 00
	00 00		 mov	 DWORD PTR _save_xsize$[ebp], 4
$LN8@do_save:

; 3815 :    if ((save_ysize = GetDlgItemInt(hwnd_dialog, IDC_SAVE_YSIZE, NULL, FALSE)) < MIN_SIZE)

  00045	6a 00		 push	 0
  00047	6a 00		 push	 0
  00049	68 2d 04 00 00	 push	 1069			; 0000042dH
  0004e	a1 00 00 00 00	 mov	 eax, DWORD PTR _hwnd_dialog
  00053	50		 push	 eax
  00054	ff 15 00 00 00
	00		 call	 DWORD PTR __imp__GetDlgItemInt@16
  0005a	89 45 ec	 mov	 DWORD PTR _save_ysize$[ebp], eax
  0005d	83 7d ec 04	 cmp	 DWORD PTR _save_ysize$[ebp], 4
  00061	7d 07		 jge	 SHORT $LN9@do_save

; 3816 :       save_ysize = MIN_SIZE;

  00063	c7 45 ec 04 00
	00 00		 mov	 DWORD PTR _save_ysize$[ebp], 4
$LN9@do_save:

; 3817 : 
; 3818 :    // Get filename and add .png extension if not already present
; 3819 :    GetDlgItemText(hwnd_dialog, IDC_SAVEFILE, savefile, sizeof(savefile));

  0006a	68 00 01 00 00	 push	 256			; 00000100H
  0006f	68 00 00 00 00	 push	 OFFSET _savefile
  00074	68 2e 04 00 00	 push	 1070			; 0000042eH
  00079	a1 00 00 00 00	 mov	 eax, DWORD PTR _hwnd_dialog
  0007e	50		 push	 eax
  0007f	ff 15 00 00 00
	00		 call	 DWORD PTR __imp__GetDlgItemTextA@16

; 3820 :    n = (int) strlen(savefile);

  00085	68 00 00 00 00	 push	 OFFSET _savefile
  0008a	e8 00 00 00 00	 call	 _strlen
  0008f	83 c4 04	 add	 esp, 4
  00092	89 45 f4	 mov	 DWORD PTR _n$[ebp], eax

; 3821 :    if (n < 4 || _strnicmp(&savefile[n - 4], ".png", 4))

  00095	83 7d f4 04	 cmp	 DWORD PTR _n$[ebp], 4
  00099	7c 1d		 jl	 SHORT $LN11@do_save
  0009b	6a 04		 push	 4
  0009d	68 00 00 00 00	 push	 OFFSET $SG41859
  000a2	8b 45 f4	 mov	 eax, DWORD PTR _n$[ebp]
  000a5	8d 88 fc ff ff
	ff		 lea	 ecx, DWORD PTR _savefile[eax-4]
  000ab	51		 push	 ecx
  000ac	e8 00 00 00 00	 call	 __strnicmp
  000b1	83 c4 0c	 add	 esp, 12			; 0000000cH
  000b4	85 c0		 test	 eax, eax
  000b6	74 17		 je	 SHORT $LN10@do_save
$LN11@do_save:

; 3822 :       strcat_s(savefile, sizeof(savefile), ".png");

  000b8	68 00 00 00 00	 push	 OFFSET $SG41860
  000bd	68 00 01 00 00	 push	 256			; 00000100H
  000c2	68 00 00 00 00	 push	 OFFSET _savefile
  000c7	e8 00 00 00 00	 call	 _strcat_s
  000cc	83 c4 0c	 add	 esp, 12			; 0000000cH
$LN10@do_save:

; 3823 : 
; 3824 :    s->xsize = save_xsize;

  000cf	8b 85 d0 fe ff
	ff		 mov	 eax, DWORD PTR _s$[ebp]
  000d5	8b 4d f0	 mov	 ecx, DWORD PTR _save_xsize$[ebp]
  000d8	89 88 88 8d 00
	00		 mov	 DWORD PTR [eax+36232], ecx

; 3825 :    s->ysize = 1;

  000de	8b 85 d0 fe ff
	ff		 mov	 eax, DWORD PTR _s$[ebp]
  000e4	c7 80 8c 8d 00
	00 01 00 00 00	 mov	 DWORD PTR [eax+36236], 1

; 3826 : 
; 3827 :    // Copy relevant image parameters to the save calculation structure from the main structure
; 3828 :    // (whose image is currently displayed).
; 3829 : 
; 3830 :    // Get saved image re/im from the main re/im + pan offsets
; 3831 :    s->re = m->re + get_re_im_offs(m, m->pan_xoffs);

  000ee	8b 85 d4 fe ff
	ff		 mov	 eax, DWORD PTR _m$[ebp]
  000f4	8b 88 9c 8d 00
	00		 mov	 ecx, DWORD PTR [eax+36252]
  000fa	51		 push	 ecx
  000fb	8b 90 98 8d 00
	00		 mov	 edx, DWORD PTR [eax+36248]
  00101	52		 push	 edx
  00102	8b 85 d4 fe ff
	ff		 mov	 eax, DWORD PTR _m$[ebp]
  00108	50		 push	 eax
  00109	e8 00 00 00 00	 call	 _get_re_im_offs
  0010e	83 c4 0c	 add	 esp, 12			; 0000000cH
  00111	dd 9d 88 fe ff
	ff		 fstp	 QWORD PTR tv277[ebp]
  00117	8b 8d d4 fe ff
	ff		 mov	 ecx, DWORD PTR _m$[ebp]
  0011d	f2 0f 10 85 88
	fe ff ff	 movsd	 xmm0, QWORD PTR tv277[ebp]
  00125	f2 0f 58 81 a8
	8d 00 00	 addsd	 xmm0, QWORD PTR [ecx+36264]
  0012d	8b 95 d0 fe ff
	ff		 mov	 edx, DWORD PTR _s$[ebp]
  00133	f2 0f 11 82 a8
	8d 00 00	 movsd	 QWORD PTR [edx+36264], xmm0

; 3832 :    s->im = m->im - get_re_im_offs(m, m->pan_yoffs);

  0013b	8b 85 d4 fe ff
	ff		 mov	 eax, DWORD PTR _m$[ebp]
  00141	8b 88 a4 8d 00
	00		 mov	 ecx, DWORD PTR [eax+36260]
  00147	51		 push	 ecx
  00148	8b 90 a0 8d 00
	00		 mov	 edx, DWORD PTR [eax+36256]
  0014e	52		 push	 edx
  0014f	8b 85 d4 fe ff
	ff		 mov	 eax, DWORD PTR _m$[ebp]
  00155	50		 push	 eax
  00156	e8 00 00 00 00	 call	 _get_re_im_offs
  0015b	83 c4 0c	 add	 esp, 12			; 0000000cH
  0015e	dd 9d 88 fe ff
	ff		 fstp	 QWORD PTR tv291[ebp]
  00164	8b 8d d4 fe ff
	ff		 mov	 ecx, DWORD PTR _m$[ebp]
  0016a	f2 0f 10 81 b0
	8d 00 00	 movsd	 xmm0, QWORD PTR [ecx+36272]
  00172	f2 0f 5c 85 88
	fe ff ff	 subsd	 xmm0, QWORD PTR tv291[ebp]
  0017a	8b 95 d0 fe ff
	ff		 mov	 edx, DWORD PTR _s$[ebp]
  00180	f2 0f 11 82 b0
	8d 00 00	 movsd	 QWORD PTR [edx+36272], xmm0

; 3833 : 
; 3834 :    // min_dimension is used to calc. coords- needs to reflect the actual ysize
; 3835 :    s->min_dimension = (save_xsize > save_ysize) ? save_ysize : save_xsize;

  00188	8b 45 f0	 mov	 eax, DWORD PTR _save_xsize$[ebp]
  0018b	3b 45 ec	 cmp	 eax, DWORD PTR _save_ysize$[ebp]
  0018e	7e 0b		 jle	 SHORT $LN18@do_save
  00190	8b 4d ec	 mov	 ecx, DWORD PTR _save_ysize$[ebp]
  00193	89 8d 8c fe ff
	ff		 mov	 DWORD PTR tv144[ebp], ecx
  00199	eb 09		 jmp	 SHORT $LN19@do_save
$LN18@do_save:
  0019b	8b 55 f0	 mov	 edx, DWORD PTR _save_xsize$[ebp]
  0019e	89 95 8c fe ff
	ff		 mov	 DWORD PTR tv144[ebp], edx
$LN19@do_save:
  001a4	8b 85 d0 fe ff
	ff		 mov	 eax, DWORD PTR _s$[ebp]
  001aa	8b 8d 8c fe ff
	ff		 mov	 ecx, DWORD PTR tv144[ebp]
  001b0	89 88 90 8d 00
	00		 mov	 DWORD PTR [eax+36240], ecx

; 3836 :    s->mag = m->mag;

  001b6	8b 85 d0 fe ff
	ff		 mov	 eax, DWORD PTR _s$[ebp]
  001bc	8b 8d d4 fe ff
	ff		 mov	 ecx, DWORD PTR _m$[ebp]
  001c2	f2 0f 10 81 b8
	8d 00 00	 movsd	 xmm0, QWORD PTR [ecx+36280]
  001ca	f2 0f 11 80 b8
	8d 00 00	 movsd	 QWORD PTR [eax+36280], xmm0

; 3837 :    s->max_iters = s->max_iters_last = m->max_iters;

  001d2	8b 85 d0 fe ff
	ff		 mov	 eax, DWORD PTR _s$[ebp]
  001d8	8b 8d d4 fe ff
	ff		 mov	 ecx, DWORD PTR _m$[ebp]
  001de	8b 91 c0 8d 00
	00		 mov	 edx, DWORD PTR [ecx+36288]
  001e4	89 90 c4 8d 00
	00		 mov	 DWORD PTR [eax+36292], edx
  001ea	8b 85 d0 fe ff
	ff		 mov	 eax, DWORD PTR _s$[ebp]
  001f0	8b 8d d0 fe ff
	ff		 mov	 ecx, DWORD PTR _s$[ebp]
  001f6	8b 91 c4 8d 00
	00		 mov	 edx, DWORD PTR [ecx+36292]
  001fc	89 90 c0 8d 00
	00		 mov	 DWORD PTR [eax+36288], edx

; 3838 : 
; 3839 :    // Can get unexpected precision loss when the saved image is larger than the on-screen image.
; 3840 :    // Always use best precision to minimize occurrences
; 3841 :    s->precision = PRECISION_DOUBLE; // m->precision

  00202	8b 85 d0 fe ff
	ff		 mov	 eax, DWORD PTR _s$[ebp]
  00208	c7 80 d0 8d 00
	00 02 00 00 00	 mov	 DWORD PTR [eax+36304], 2

; 3842 :    s->alg = m->alg | ALG_EXACT;     // exact will be faster for 1-pixel high rows. Want for best quality anyway.

  00212	8b 85 d4 fe ff
	ff		 mov	 eax, DWORD PTR _m$[ebp]
  00218	8b 88 c8 8d 00
	00		 mov	 ecx, DWORD PTR [eax+36296]
  0021e	83 c9 01	 or	 ecx, 1
  00221	8b 95 d0 fe ff
	ff		 mov	 edx, DWORD PTR _s$[ebp]
  00227	89 8a c8 8d 00
	00		 mov	 DWORD PTR [edx+36296], ecx

; 3843 :    s->palette = m->palette;

  0022d	8b 85 d0 fe ff
	ff		 mov	 eax, DWORD PTR _s$[ebp]
  00233	8b 8d d4 fe ff
	ff		 mov	 ecx, DWORD PTR _m$[ebp]
  00239	8b 91 f4 8d 00
	00		 mov	 edx, DWORD PTR [ecx+36340]
  0023f	89 90 f4 8d 00
	00		 mov	 DWORD PTR [eax+36340], edx

; 3844 :    s->prev_pal = 0xFFFFFFFF;        // always recalc. pal lookup table before starting

  00245	8b 85 d0 fe ff
	ff		 mov	 eax, DWORD PTR _s$[ebp]
  0024b	c7 80 f8 8d 00
	00 ff ff ff ff	 mov	 DWORD PTR [eax+36344], -1

; 3845 :    s->pal_xor = m->pal_xor;

  00255	8b 85 d0 fe ff
	ff		 mov	 eax, DWORD PTR _s$[ebp]
  0025b	8b 8d d4 fe ff
	ff		 mov	 ecx, DWORD PTR _m$[ebp]
  00261	8b 91 fc 8d 00
	00		 mov	 edx, DWORD PTR [ecx+36348]
  00267	89 90 fc 8d 00
	00		 mov	 DWORD PTR [eax+36348], edx

; 3846 :    s->max_iters_color = m->max_iters_color;

  0026d	8b 85 d0 fe ff
	ff		 mov	 eax, DWORD PTR _s$[ebp]
  00273	8b 8d d4 fe ff
	ff		 mov	 ecx, DWORD PTR _m$[ebp]
  00279	8b 91 00 8e 00
	00		 mov	 edx, DWORD PTR [ecx+36352]
  0027f	89 90 00 8e 00
	00		 mov	 DWORD PTR [eax+36352], edx

; 3847 :    s->rendering_alg = m->rendering_alg;

  00285	8b 85 d0 fe ff
	ff		 mov	 eax, DWORD PTR _s$[ebp]
  0028b	8b 8d d4 fe ff
	ff		 mov	 ecx, DWORD PTR _m$[ebp]
  00291	8b 91 04 8e 00
	00		 mov	 edx, DWORD PTR [ecx+36356]
  00297	89 90 04 8e 00
	00		 mov	 DWORD PTR [eax+36356], edx

; 3848 :    s->flags |= FLAG_CALC_RE_ARRAY;  // tell man_calculate to calculate the real array initially

  0029d	8b 85 d0 fe ff
	ff		 mov	 eax, DWORD PTR _s$[ebp]
  002a3	8b 88 0c 93 02
	00		 mov	 ecx, DWORD PTR [eax+168716]
  002a9	83 c9 02	 or	 ecx, 2
  002ac	8b 95 d0 fe ff
	ff		 mov	 edx, DWORD PTR _s$[ebp]
  002b2	89 8a 0c 93 02
	00		 mov	 DWORD PTR [edx+168716], ecx

; 3849 : 
; 3850 :    // Make sure all image data above is already captured before possibly popping a message
; 3851 :    // box. Because this func is in a separate thread, the image can be modified (panned, etc)
; 3852 :    // while the box is open.
; 3853 : 
; 3854 :    // If file already exists, ask user to confirm overwite
; 3855 :    if (!fopen_s(&fp, savefile, "rb"))

  002b8	68 00 00 00 00	 push	 OFFSET $SG41862
  002bd	68 00 00 00 00	 push	 OFFSET _savefile
  002c2	8d 85 e0 fe ff
	ff		 lea	 eax, DWORD PTR _fp$[ebp]
  002c8	50		 push	 eax
  002c9	e8 00 00 00 00	 call	 _fopen_s
  002ce	83 c4 0c	 add	 esp, 12			; 0000000cH
  002d1	85 c0		 test	 eax, eax
  002d3	75 61		 jne	 SHORT $LN13@do_save

; 3856 :    {
; 3857 :       fclose(fp);

  002d5	8b 85 e0 fe ff
	ff		 mov	 eax, DWORD PTR _fp$[ebp]
  002db	50		 push	 eax
  002dc	e8 00 00 00 00	 call	 _fclose
  002e1	83 c4 04	 add	 esp, 4

; 3858 :       sprintf_s(c, sizeof(c), "%s already exists. Overwrite?", savefile);

  002e4	68 00 00 00 00	 push	 OFFSET _savefile
  002e9	68 00 00 00 00	 push	 OFFSET $SG41863
  002ee	68 00 01 00 00	 push	 256			; 00000100H
  002f3	8d 85 e4 fe ff
	ff		 lea	 eax, DWORD PTR _c$[ebp]
  002f9	50		 push	 eax
  002fa	e8 00 00 00 00	 call	 _sprintf_s
  002ff	83 c4 10	 add	 esp, 16			; 00000010H

; 3859 :       if (MessageBox(NULL, c, "Warning", MB_YESNO | MB_ICONWARNING | MB_TASKMODAL) != IDYES)

  00302	68 34 20 00 00	 push	 8244			; 00002034H
  00307	68 00 00 00 00	 push	 OFFSET $SG41865
  0030c	8d 85 e4 fe ff
	ff		 lea	 eax, DWORD PTR _c$[ebp]
  00312	50		 push	 eax
  00313	6a 00		 push	 0
  00315	ff 15 00 00 00
	00		 call	 DWORD PTR __imp__MessageBoxA@16
  0031b	83 f8 06	 cmp	 eax, 6
  0031e	74 16		 je	 SHORT $LN13@do_save

; 3860 :       {
; 3861 :          status &= ~STAT_DOING_SAVE;

  00320	a1 00 00 00 00	 mov	 eax, DWORD PTR _status
  00325	25 7f ff ff ff	 and	 eax, -129		; ffffff7fH
  0032a	a3 00 00 00 00	 mov	 DWORD PTR _status, eax

; 3862 :          return 0;

  0032f	33 c0		 xor	 eax, eax
  00331	e9 7c 02 00 00	 jmp	 $LN1@do_save
$LN13@do_save:

; 3863 :       }
; 3864 :    }
; 3865 : 
; 3866 :    if (!png_save_start(savefile, save_xsize, save_ysize))

  00336	8b 45 ec	 mov	 eax, DWORD PTR _save_ysize$[ebp]
  00339	50		 push	 eax
  0033a	8b 4d f0	 mov	 ecx, DWORD PTR _save_xsize$[ebp]
  0033d	51		 push	 ecx
  0033e	68 00 00 00 00	 push	 OFFSET _savefile
  00343	e8 00 00 00 00	 call	 _png_save_start
  00348	83 c4 0c	 add	 esp, 12			; 0000000cH
  0034b	85 c0		 test	 eax, eax
  0034d	75 16		 jne	 SHORT $LN14@do_save

; 3867 :    {
; 3868 :       status &= ~STAT_DOING_SAVE;

  0034f	a1 00 00 00 00	 mov	 eax, DWORD PTR _status
  00354	25 7f ff ff ff	 and	 eax, -129		; ffffff7fH
  00359	a3 00 00 00 00	 mov	 DWORD PTR _status, eax

; 3869 :       return 0;

  0035e	33 c0		 xor	 eax, eax
  00360	e9 4d 02 00 00	 jmp	 $LN1@do_save
$LN14@do_save:

; 3870 :    }
; 3871 : 
; 3872 :    free_man_mem(s); // free any existing arrays and alloc new arrays

  00365	8b 85 d0 fe ff
	ff		 mov	 eax, DWORD PTR _s$[ebp]
  0036b	50		 push	 eax
  0036c	e8 00 00 00 00	 call	 _free_man_mem
  00371	83 c4 04	 add	 esp, 4

; 3873 :    alloc_man_mem(s, save_xsize, 1);

  00374	6a 01		 push	 1
  00376	8b 45 f0	 mov	 eax, DWORD PTR _save_xsize$[ebp]
  00379	50		 push	 eax
  0037a	8b 8d d0 fe ff
	ff		 mov	 ecx, DWORD PTR _s$[ebp]
  00380	51		 push	 ecx
  00381	e8 00 00 00 00	 call	 _alloc_man_mem
  00386	83 c4 0c	 add	 esp, 12			; 0000000cH

; 3874 : 
; 3875 :    start_time = t = get_timer();

  00389	e8 00 00 00 00	 call	 _get_timer
  0038e	89 85 d8 fe ff
	ff		 mov	 DWORD PTR _t$[ebp], eax
  00394	8b 85 d8 fe ff
	ff		 mov	 eax, DWORD PTR _t$[ebp]
  0039a	89 85 dc fe ff
	ff		 mov	 DWORD PTR _start_time$[ebp], eax

; 3876 : 
; 3877 :    s->pan_yoffs = -((save_ysize - 1) >> 1); // pan_yoffs of image top

  003a0	8b 45 ec	 mov	 eax, DWORD PTR _save_ysize$[ebp]
  003a3	83 e8 01	 sub	 eax, 1
  003a6	d1 f8		 sar	 eax, 1
  003a8	f7 d8		 neg	 eax
  003aa	99		 cdq
  003ab	8b 8d d0 fe ff
	ff		 mov	 ecx, DWORD PTR _s$[ebp]
  003b1	89 81 a0 8d 00
	00		 mov	 DWORD PTR [ecx+36256], eax
  003b7	89 91 a4 8d 00
	00		 mov	 DWORD PTR [ecx+36260], edx

; 3878 :    for (i = 0; i < save_ysize; i++)

  003bd	c7 45 fc 00 00
	00 00		 mov	 DWORD PTR _i$[ebp], 0
  003c4	eb 09		 jmp	 SHORT $LN4@do_save
$LN2@do_save:
  003c6	8b 45 fc	 mov	 eax, DWORD PTR _i$[ebp]
  003c9	83 c0 01	 add	 eax, 1
  003cc	89 45 fc	 mov	 DWORD PTR _i$[ebp], eax
$LN4@do_save:
  003cf	8b 45 fc	 mov	 eax, DWORD PTR _i$[ebp]
  003d2	3b 45 ec	 cmp	 eax, DWORD PTR _save_ysize$[ebp]
  003d5	0f 8d 7f 01 00
	00		 jge	 $LN3@do_save

; 3879 :    {
; 3880 :       man_calculate(s, 0, save_xsize - 1, 0, 0); // iterate the row

  003db	6a 00		 push	 0
  003dd	6a 00		 push	 0
  003df	8b 45 f0	 mov	 eax, DWORD PTR _save_xsize$[ebp]
  003e2	83 e8 01	 sub	 eax, 1
  003e5	50		 push	 eax
  003e6	6a 00		 push	 0
  003e8	8b 8d d0 fe ff
	ff		 mov	 ecx, DWORD PTR _s$[ebp]
  003ee	51		 push	 ecx
  003ef	e8 00 00 00 00	 call	 _man_calculate
  003f4	dd d8		 fstp	 ST(0)
  003f6	83 c4 14	 add	 esp, 20			; 00000014H

; 3881 :       s->flags &= ~FLAG_CALC_RE_ARRAY; // don't have to recalculate real array on subsequent rows

  003f9	8b 85 d0 fe ff
	ff		 mov	 eax, DWORD PTR _s$[ebp]
  003ff	8b 88 0c 93 02
	00		 mov	 ecx, DWORD PTR [eax+168716]
  00405	83 e1 fd	 and	 ecx, -3			; fffffffdH
  00408	8b 95 d0 fe ff
	ff		 mov	 edx, DWORD PTR _s$[ebp]
  0040e	89 8a 0c 93 02
	00		 mov	 DWORD PTR [edx+168716], ecx

; 3882 : 
; 3883 :       // Palette-map the iteration counts to RGB data in png_buffer. Magnitudes are also available here.
; 3884 :       apply_palette(s, (unsigned *) s->png_buffer, s->iter_data, save_xsize, 1);

  00414	6a 01		 push	 1
  00416	8b 45 f0	 mov	 eax, DWORD PTR _save_xsize$[ebp]
  00419	50		 push	 eax
  0041a	8b 8d d0 fe ff
	ff		 mov	 ecx, DWORD PTR _s$[ebp]
  00420	8b 91 e0 8d 00
	00		 mov	 edx, DWORD PTR [ecx+36320]
  00426	52		 push	 edx
  00427	8b 85 d0 fe ff
	ff		 mov	 eax, DWORD PTR _s$[ebp]
  0042d	8b 88 f0 8d 00
	00		 mov	 ecx, DWORD PTR [eax+36336]
  00433	51		 push	 ecx
  00434	8b 95 d0 fe ff
	ff		 mov	 edx, DWORD PTR _s$[ebp]
  0043a	52		 push	 edx
  0043b	e8 00 00 00 00	 call	 _apply_palette
  00440	83 c4 14	 add	 esp, 20			; 00000014H

; 3885 : 
; 3886 :       // Convert the 4 bytes-per-pixel data in png_buffer to 3 bpp, as required by pnglib, and write rows
; 3887 :       ptr3 = ptr4 = s->png_buffer;

  00443	8b 85 d0 fe ff
	ff		 mov	 eax, DWORD PTR _s$[ebp]
  00449	8b 88 f0 8d 00
	00		 mov	 ecx, DWORD PTR [eax+36336]
  0044f	89 4d e4	 mov	 DWORD PTR _ptr4$[ebp], ecx
  00452	8b 55 e4	 mov	 edx, DWORD PTR _ptr4$[ebp]
  00455	89 55 e8	 mov	 DWORD PTR _ptr3$[ebp], edx

; 3888 :       for (j = 0; j < save_xsize; j++)

  00458	c7 45 f8 00 00
	00 00		 mov	 DWORD PTR _j$[ebp], 0
  0045f	eb 09		 jmp	 SHORT $LN7@do_save
$LN5@do_save:
  00461	8b 45 f8	 mov	 eax, DWORD PTR _j$[ebp]
  00464	83 c0 01	 add	 eax, 1
  00467	89 45 f8	 mov	 DWORD PTR _j$[ebp], eax
$LN7@do_save:
  0046a	8b 45 f8	 mov	 eax, DWORD PTR _j$[ebp]
  0046d	3b 45 f0	 cmp	 eax, DWORD PTR _save_xsize$[ebp]
  00470	7d 1e		 jge	 SHORT $LN6@do_save

; 3889 :       {
; 3890 :          *((unsigned *) ptr3) = *((unsigned *) ptr4);

  00472	8b 45 e8	 mov	 eax, DWORD PTR _ptr3$[ebp]
  00475	8b 4d e4	 mov	 ecx, DWORD PTR _ptr4$[ebp]
  00478	8b 11		 mov	 edx, DWORD PTR [ecx]
  0047a	89 10		 mov	 DWORD PTR [eax], edx

; 3891 :          ptr3 += 3;

  0047c	8b 45 e8	 mov	 eax, DWORD PTR _ptr3$[ebp]
  0047f	83 c0 03	 add	 eax, 3
  00482	89 45 e8	 mov	 DWORD PTR _ptr3$[ebp], eax

; 3892 :          ptr4 += 4;

  00485	8b 45 e4	 mov	 eax, DWORD PTR _ptr4$[ebp]
  00488	83 c0 04	 add	 eax, 4
  0048b	89 45 e4	 mov	 DWORD PTR _ptr4$[ebp], eax

; 3893 :       }

  0048e	eb d1		 jmp	 SHORT $LN5@do_save
$LN6@do_save:

; 3894 :       if (!png_save_write_row(s->png_buffer))  // write the row

  00490	8b 85 d0 fe ff
	ff		 mov	 eax, DWORD PTR _s$[ebp]
  00496	8b 88 f0 8d 00
	00		 mov	 ecx, DWORD PTR [eax+36336]
  0049c	51		 push	 ecx
  0049d	e8 00 00 00 00	 call	 _png_save_write_row
  004a2	83 c4 04	 add	 esp, 4
  004a5	85 c0		 test	 eax, eax
  004a7	75 05		 jne	 SHORT $LN15@do_save

; 3895 :          break;

  004a9	e9 ac 00 00 00	 jmp	 $LN3@do_save
$LN15@do_save:

; 3896 : 
; 3897 :       s->pan_yoffs++;       // go to next row

  004ae	8b 85 d0 fe ff
	ff		 mov	 eax, DWORD PTR _s$[ebp]
  004b4	8b 88 a0 8d 00
	00		 mov	 ecx, DWORD PTR [eax+36256]
  004ba	83 c1 01	 add	 ecx, 1
  004bd	8b 90 a4 8d 00
	00		 mov	 edx, DWORD PTR [eax+36260]
  004c3	83 d2 00	 adc	 edx, 0
  004c6	8b 85 d0 fe ff
	ff		 mov	 eax, DWORD PTR _s$[ebp]
  004cc	89 88 a0 8d 00
	00		 mov	 DWORD PTR [eax+36256], ecx
  004d2	89 90 a4 8d 00
	00		 mov	 DWORD PTR [eax+36260], edx

; 3898 : 
; 3899 :       if (get_seconds_elapsed(t) > 0.5) // print progress indicator every 0.5s

  004d8	8b 85 d8 fe ff
	ff		 mov	 eax, DWORD PTR _t$[ebp]
  004de	50		 push	 eax
  004df	e8 00 00 00 00	 call	 _get_seconds_elapsed
  004e4	83 c4 04	 add	 esp, 4
  004e7	dd 9d 88 fe ff
	ff		 fstp	 QWORD PTR tv395[ebp]
  004ed	f2 0f 10 85 88
	fe ff ff	 movsd	 xmm0, QWORD PTR tv395[ebp]
  004f5	66 0f 2f 05 00
	00 00 00	 comisd	 xmm0, QWORD PTR __real@3fe0000000000000
  004fd	76 56		 jbe	 SHORT $LN16@do_save

; 3900 :       {
; 3901 :          sprintf_s(c, sizeof(c), "Saving... (%3.1f%%)", 100.0 * (double) i / (double) save_ysize);

  004ff	f2 0f 2a 45 fc	 cvtsi2sd xmm0, DWORD PTR _i$[ebp]
  00504	f2 0f 59 05 00
	00 00 00	 mulsd	 xmm0, QWORD PTR __real@4059000000000000
  0050c	f2 0f 2a 4d ec	 cvtsi2sd xmm1, DWORD PTR _save_ysize$[ebp]
  00511	f2 0f 5e c1	 divsd	 xmm0, xmm1
  00515	83 ec 08	 sub	 esp, 8
  00518	f2 0f 11 04 24	 movsd	 QWORD PTR [esp], xmm0
  0051d	68 00 00 00 00	 push	 OFFSET $SG41869
  00522	68 00 01 00 00	 push	 256			; 00000100H
  00527	8d 85 e4 fe ff
	ff		 lea	 eax, DWORD PTR _c$[ebp]
  0052d	50		 push	 eax
  0052e	e8 00 00 00 00	 call	 _sprintf_s
  00533	83 c4 14	 add	 esp, 20			; 00000014H

; 3902 :          SetWindowText(hwnd_status, c);

  00536	8d 85 e4 fe ff
	ff		 lea	 eax, DWORD PTR _c$[ebp]
  0053c	50		 push	 eax
  0053d	8b 0d 00 00 00
	00		 mov	 ecx, DWORD PTR _hwnd_status
  00543	51		 push	 ecx
  00544	ff 15 00 00 00
	00		 call	 DWORD PTR __imp__SetWindowTextA@8

; 3903 :          t = get_timer();

  0054a	e8 00 00 00 00	 call	 _get_timer
  0054f	89 85 d8 fe ff
	ff		 mov	 DWORD PTR _t$[ebp], eax
$LN16@do_save:

; 3904 :       }
; 3905 :    }

  00555	e9 6c fe ff ff	 jmp	 $LN2@do_save
$LN3@do_save:

; 3906 : 
; 3907 :    png_save_end();

  0055a	e8 00 00 00 00	 call	 _png_save_end

; 3908 :    sprintf_s(c, sizeof(c), "Saved in %.1fs", get_seconds_elapsed(start_time));

  0055f	8b 85 dc fe ff
	ff		 mov	 eax, DWORD PTR _start_time$[ebp]
  00565	50		 push	 eax
  00566	e8 00 00 00 00	 call	 _get_seconds_elapsed
  0056b	83 c4 fc	 add	 esp, -4			; fffffffcH
  0056e	dd 1c 24	 fstp	 QWORD PTR [esp]
  00571	68 00 00 00 00	 push	 OFFSET $SG41870
  00576	68 00 01 00 00	 push	 256			; 00000100H
  0057b	8d 8d e4 fe ff
	ff		 lea	 ecx, DWORD PTR _c$[ebp]
  00581	51		 push	 ecx
  00582	e8 00 00 00 00	 call	 _sprintf_s
  00587	83 c4 14	 add	 esp, 20			; 00000014H

; 3909 :    SetWindowText(hwnd_status, c);

  0058a	8d 85 e4 fe ff
	ff		 lea	 eax, DWORD PTR _c$[ebp]
  00590	50		 push	 eax
  00591	8b 0d 00 00 00
	00		 mov	 ecx, DWORD PTR _hwnd_status
  00597	51		 push	 ecx
  00598	ff 15 00 00 00
	00		 call	 DWORD PTR __imp__SetWindowTextA@8

; 3910 : 
; 3911 :    status &= ~STAT_DOING_SAVE;

  0059e	a1 00 00 00 00	 mov	 eax, DWORD PTR _status
  005a3	25 7f ff ff ff	 and	 eax, -129		; ffffff7fH
  005a8	a3 00 00 00 00	 mov	 DWORD PTR _status, eax

; 3912 :    return 1;

  005ad	b8 01 00 00 00	 mov	 eax, 1
$LN1@do_save:

; 3913 : }

  005b2	5f		 pop	 edi
  005b3	5e		 pop	 esi
  005b4	5b		 pop	 ebx
  005b5	8b e5		 mov	 esp, ebp
  005b7	5d		 pop	 ebp
  005b8	c2 04 00	 ret	 4
_do_save@4 ENDP
_TEXT	ENDS
; Function compile flags: /Odtp /ZI
; File d:\stanley\desktop\quickman_v110\source\quickman.c
;	COMDAT _resize_window
_TEXT	SEGMENT
_resize_window PROC					; COMDAT

; 3766 : {

  00000	55		 push	 ebp
  00001	8b ec		 mov	 ebp, esp
  00003	83 ec 40	 sub	 esp, 64			; 00000040H
  00006	53		 push	 ebx
  00007	56		 push	 esi
  00008	57		 push	 edi

; 3767 :    if (!(status & STAT_FULLSCREEN))

  00009	a1 00 00 00 00	 mov	 eax, DWORD PTR _status
  0000e	83 e0 04	 and	 eax, 4
  00011	0f 85 97 00 00
	00		 jne	 $LN2@resize_win

; 3768 :    {
; 3769 :       // xsize 0: fullscreen (other values < MIN_SIZE can be used later)
; 3770 :       if (cfg_settings.xsize.val < MIN_SIZE)

  00017	83 3d 54 00 00
	00 04		 cmp	 DWORD PTR _cfg_settings+84, 4
  0001e	7d 0a		 jge	 SHORT $LN4@resize_win

; 3771 :          toggle_fullscreen();

  00020	e8 00 00 00 00	 call	 _toggle_fullscreen
  00025	e9 82 00 00 00	 jmp	 $LN5@resize_win
$LN4@resize_win:

; 3772 :       else if (cfg_settings.ysize.val >= MIN_SIZE && // ignore any restoring ysize = 0

  0002a	83 3d 68 00 00
	00 04		 cmp	 DWORD PTR _cfg_settings+104, 4
  00031	7c 79		 jl	 SHORT $LN5@resize_win
  00033	a1 54 00 00 00	 mov	 eax, DWORD PTR _cfg_settings+84
  00038	3b 05 00 00 00
	00		 cmp	 eax, DWORD PTR _prev_xsize
  0003e	75 0d		 jne	 SHORT $LN7@resize_win
  00040	a1 68 00 00 00	 mov	 eax, DWORD PTR _cfg_settings+104
  00045	3b 05 00 00 00
	00		 cmp	 eax, DWORD PTR _prev_ysize
  0004b	74 5f		 je	 SHORT $LN5@resize_win
$LN7@resize_win:

; 3773 :               (cfg_settings.xsize.val != prev_xsize || cfg_settings.ysize.val != prev_ysize))
; 3774 :       {
; 3775 :          // Without this, you can change the size of a maximized window, which puts
; 3776 :          // it into a bad state (can't resize)
; 3777 :          ShowWindow(hwnd_main, SW_RESTORE);

  0004d	6a 09		 push	 9
  0004f	a1 00 00 00 00	 mov	 eax, DWORD PTR _hwnd_main
  00054	50		 push	 eax
  00055	ff 15 00 00 00
	00		 call	 DWORD PTR __imp__ShowWindow@8

; 3778 :          SetWindowPos(hwnd_main, HWND_TOP, 0, 0, cfg_settings.xsize.val + x_border,

  0005b	68 02 01 00 00	 push	 258			; 00000102H
  00060	a1 68 00 00 00	 mov	 eax, DWORD PTR _cfg_settings+104
  00065	03 05 00 00 00
	00		 add	 eax, DWORD PTR _y_border
  0006b	50		 push	 eax
  0006c	8b 0d 54 00 00
	00		 mov	 ecx, DWORD PTR _cfg_settings+84
  00072	03 0d 00 00 00
	00		 add	 ecx, DWORD PTR _x_border
  00078	51		 push	 ecx
  00079	6a 00		 push	 0
  0007b	6a 00		 push	 0
  0007d	6a 00		 push	 0
  0007f	8b 15 00 00 00
	00		 mov	 edx, DWORD PTR _hwnd_main
  00085	52		 push	 edx
  00086	ff 15 00 00 00
	00		 call	 DWORD PTR __imp__SetWindowPos@28

; 3779 :                       cfg_settings.ysize.val + y_border, SWP_NOMOVE | SWP_NOCOPYBITS);
; 3780 :          UpdateWindow(hwnd_main); // not sure why this is necessary. Sizes get out of sync?

  0008c	a1 00 00 00 00	 mov	 eax, DWORD PTR _hwnd_main
  00091	50		 push	 eax
  00092	ff 15 00 00 00
	00		 call	 DWORD PTR __imp__UpdateWindow@4

; 3781 : 
; 3782 :          prev_xsize = cfg_settings.xsize.val; // Save previous size

  00098	a1 54 00 00 00	 mov	 eax, DWORD PTR _cfg_settings+84
  0009d	a3 00 00 00 00	 mov	 DWORD PTR _prev_xsize, eax

; 3783 :          prev_ysize = cfg_settings.ysize.val; // Can't do this in create_bitmap

  000a2	a1 68 00 00 00	 mov	 eax, DWORD PTR _cfg_settings+104
  000a7	a3 00 00 00 00	 mov	 DWORD PTR _prev_ysize, eax
$LN5@resize_win:

; 3784 :       }
; 3785 :    }

  000ac	eb 0e		 jmp	 SHORT $LN1@resize_win
$LN2@resize_win:

; 3786 :    else // If in fullscreen mode: only allow restore
; 3787 :       if (cfg_settings.ysize.val < MIN_SIZE)

  000ae	83 3d 68 00 00
	00 04		 cmp	 DWORD PTR _cfg_settings+104, 4
  000b5	7d 05		 jge	 SHORT $LN1@resize_win

; 3788 :          toggle_fullscreen();

  000b7	e8 00 00 00 00	 call	 _toggle_fullscreen
$LN1@resize_win:

; 3789 : }

  000bc	5f		 pop	 edi
  000bd	5e		 pop	 esi
  000be	5b		 pop	 ebx
  000bf	8b e5		 mov	 esp, ebp
  000c1	5d		 pop	 ebp
  000c2	c3		 ret	 0
_resize_window ENDP
_TEXT	ENDS
; Function compile flags: /Odtp /ZI
; File d:\stanley\desktop\quickman_v110\source\quickman.c
;	COMDAT _show_help@4
_TEXT	SEGMENT
_param$ = 8						; size = 4
_show_help@4 PROC					; COMDAT

; 3754 : {

  00000	55		 push	 ebp
  00001	8b ec		 mov	 ebp, esp
  00003	83 ec 40	 sub	 esp, 64			; 00000040H
  00006	53		 push	 ebx
  00007	56		 push	 esi
  00008	57		 push	 edi

; 3755 :    // Using MB_TOPMOST gives an old window style... need to use SYSTEMMODAL, but then we get
; 3756 :    // an annoying icon on the title bar
; 3757 :    MessageBox(NULL, help_text, "QuickMAN Help", MB_OK | MB_ICONINFORMATION | MB_SYSTEMMODAL);

  00009	68 40 10 00 00	 push	 4160			; 00001040H
  0000e	68 00 00 00 00	 push	 OFFSET $SG41807
  00013	68 00 00 00 00	 push	 OFFSET _help_text
  00018	6a 00		 push	 0
  0001a	ff 15 00 00 00
	00		 call	 DWORD PTR __imp__MessageBoxA@16

; 3758 :    status &= ~STAT_HELP_SHOWING;

  00020	a1 00 00 00 00	 mov	 eax, DWORD PTR _status
  00025	83 e0 bf	 and	 eax, -65		; ffffffbfH
  00028	a3 00 00 00 00	 mov	 DWORD PTR _status, eax

; 3759 :    return 0;

  0002d	33 c0		 xor	 eax, eax

; 3760 : }

  0002f	5f		 pop	 edi
  00030	5e		 pop	 esi
  00031	5b		 pop	 ebx
  00032	8b e5		 mov	 esp, ebp
  00034	5d		 pop	 ebp
  00035	c2 04 00	 ret	 4
_show_help@4 ENDP
_TEXT	ENDS
; Function compile flags: /Odtp /ZI
; File d:\stanley\desktop\quickman_v110\source\quickman.c
;	COMDAT _toggle_fullscreen
_TEXT	SEGMENT
_toggle_fullscreen PROC					; COMDAT

; 3727 : {

  00000	55		 push	 ebp
  00001	8b ec		 mov	 ebp, esp
  00003	83 ec 40	 sub	 esp, 64			; 00000040H
  00006	53		 push	 ebx
  00007	56		 push	 esi
  00008	57		 push	 edi

; 3728 :    if ((status ^= STAT_FULLSCREEN) & STAT_FULLSCREEN)

  00009	a1 00 00 00 00	 mov	 eax, DWORD PTR _status
  0000e	83 f0 04	 xor	 eax, 4
  00011	a3 00 00 00 00	 mov	 DWORD PTR _status, eax
  00016	8b 0d 00 00 00
	00		 mov	 ecx, DWORD PTR _status
  0001c	83 e1 04	 and	 ecx, 4
  0001f	74 52		 je	 SHORT $LN2@toggle_ful

; 3729 :    {
; 3730 :       // Hide dialog on entry to fullscreen mode, if so configured
; 3731 :       if (!(cfg_settings.options.val & OPT_DIALOG_IN_FULLSCREEN))

  00021	a1 a4 00 00 00	 mov	 eax, DWORD PTR _cfg_settings+164
  00026	83 e0 02	 and	 eax, 2
  00029	75 0d		 jne	 SHORT $LN4@toggle_ful

; 3732 :          status |= STAT_DIALOG_HIDDEN;

  0002b	a1 00 00 00 00	 mov	 eax, DWORD PTR _status
  00030	83 c8 10	 or	 eax, 16			; 00000010H
  00033	a3 00 00 00 00	 mov	 DWORD PTR _status, eax
$LN4@toggle_ful:

; 3733 : 
; 3734 :       SetWindowLongPtr(hwnd_main, GWL_STYLE, WS_POPUP | WS_VISIBLE);

  00038	68 00 00 00 90	 push	 -1879048192		; 90000000H
  0003d	6a f0		 push	 -16			; fffffff0H
  0003f	a1 00 00 00 00	 mov	 eax, DWORD PTR _hwnd_main
  00044	50		 push	 eax
  00045	ff 15 00 00 00
	00		 call	 DWORD PTR __imp__SetWindowLongA@12

; 3735 :       SetWindowPos(hwnd_main, NULL, 0, 0, GetSystemMetrics(SM_CXSCREEN),

  0004b	6a 24		 push	 36			; 00000024H
  0004d	6a 01		 push	 1
  0004f	ff 15 00 00 00
	00		 call	 DWORD PTR __imp__GetSystemMetrics@4
  00055	50		 push	 eax
  00056	6a 00		 push	 0
  00058	ff 15 00 00 00
	00		 call	 DWORD PTR __imp__GetSystemMetrics@4
  0005e	50		 push	 eax
  0005f	6a 00		 push	 0
  00061	6a 00		 push	 0
  00063	6a 00		 push	 0
  00065	a1 00 00 00 00	 mov	 eax, DWORD PTR _hwnd_main
  0006a	50		 push	 eax
  0006b	ff 15 00 00 00
	00		 call	 DWORD PTR __imp__SetWindowPos@28

; 3736 :                    GetSystemMetrics(SM_CYSCREEN), SWP_DRAWFRAME | SWP_NOZORDER);
; 3737 :    }

  00071	eb 57		 jmp	 SHORT $LN3@toggle_ful
$LN2@toggle_ful:

; 3738 :    else // exit
; 3739 :    {
; 3740 :       status &= ~STAT_DIALOG_HIDDEN; // always show dialog when coming out of fullscreen

  00073	a1 00 00 00 00	 mov	 eax, DWORD PTR _status
  00078	83 e0 ef	 and	 eax, -17		; ffffffefH
  0007b	a3 00 00 00 00	 mov	 DWORD PTR _status, eax

; 3741 : 
; 3742 :       SetWindowLongPtr(hwnd_main, GWL_STYLE, WS_OVERLAPPEDWINDOW | WS_VISIBLE);

  00080	68 00 00 cf 10	 push	 282001408		; 10cf0000H
  00085	6a f0		 push	 -16			; fffffff0H
  00087	a1 00 00 00 00	 mov	 eax, DWORD PTR _hwnd_main
  0008c	50		 push	 eax
  0008d	ff 15 00 00 00
	00		 call	 DWORD PTR __imp__SetWindowLongA@12

; 3743 :       SetWindowPos(hwnd_main, NULL, main_rect.left, main_rect.top,

  00093	6a 04		 push	 4
  00095	a1 0c 00 00 00	 mov	 eax, DWORD PTR _main_rect+12
  0009a	2b 05 04 00 00
	00		 sub	 eax, DWORD PTR _main_rect+4
  000a0	50		 push	 eax
  000a1	8b 0d 08 00 00
	00		 mov	 ecx, DWORD PTR _main_rect+8
  000a7	2b 0d 00 00 00
	00		 sub	 ecx, DWORD PTR _main_rect
  000ad	51		 push	 ecx
  000ae	8b 15 04 00 00
	00		 mov	 edx, DWORD PTR _main_rect+4
  000b4	52		 push	 edx
  000b5	a1 00 00 00 00	 mov	 eax, DWORD PTR _main_rect
  000ba	50		 push	 eax
  000bb	6a 00		 push	 0
  000bd	8b 0d 00 00 00
	00		 mov	 ecx, DWORD PTR _hwnd_main
  000c3	51		 push	 ecx
  000c4	ff 15 00 00 00
	00		 call	 DWORD PTR __imp__SetWindowPos@28
$LN3@toggle_ful:

; 3744 :                    main_rect.right - main_rect.left, main_rect.bottom - main_rect.top,
; 3745 :                    SWP_NOZORDER);
; 3746 :    }
; 3747 :    UpdateWindow(hwnd_main);

  000ca	a1 00 00 00 00	 mov	 eax, DWORD PTR _hwnd_main
  000cf	50		 push	 eax
  000d0	ff 15 00 00 00
	00		 call	 DWORD PTR __imp__UpdateWindow@4

; 3748 : 
; 3749 :    if (cfg_settings.options.val & OPT_RECALC_ON_RESIZE)  // recalc after resize, if enabled

  000d6	a1 a4 00 00 00	 mov	 eax, DWORD PTR _cfg_settings+164
  000db	83 e0 01	 and	 eax, 1
  000de	74 0d		 je	 SHORT $LN1@toggle_ful

; 3750 :       status |= STAT_RECALC_IMMEDIATELY;

  000e0	a1 00 00 00 00	 mov	 eax, DWORD PTR _status
  000e5	83 c8 08	 or	 eax, 8
  000e8	a3 00 00 00 00	 mov	 DWORD PTR _status, eax
$LN1@toggle_ful:

; 3751 : }

  000ed	5f		 pop	 edi
  000ee	5e		 pop	 esi
  000ef	5b		 pop	 ebx
  000f0	8b e5		 mov	 esp, ebp
  000f2	5d		 pop	 ebp
  000f3	c3		 ret	 0
_toggle_fullscreen ENDP
_TEXT	ENDS
; Function compile flags: /Odtp /ZI
; File d:\stanley\desktop\quickman_v110\source\quickman.c
;	COMDAT _update_dialog
_TEXT	SEGMENT
tv82 = -132						; size = 4
_overhang$ = -64					; size = 4
_ypos$ = -60						; size = 4
_xpos$ = -56						; size = 4
_rc_desktop$ = -52					; size = 16
_rc_dialog$ = -36					; size = 16
_rc_owner$ = -20					; size = 16
_hwnd_desktop$ = -4					; size = 4
_hide$ = 8						; size = 4
_move$ = 12						; size = 4
_update_dialog PROC					; COMDAT

; 3687 : {

  00000	55		 push	 ebp
  00001	8b ec		 mov	 ebp, esp
  00003	81 ec 84 00 00
	00		 sub	 esp, 132		; 00000084H
  00009	53		 push	 ebx
  0000a	56		 push	 esi
  0000b	57		 push	 edi

; 3688 :    HWND hwnd_desktop;
; 3689 :    RECT rc_owner, rc_dialog, rc_desktop;
; 3690 :    int xpos, ypos, overhang;
; 3691 : 
; 3692 :    if (hwnd_main == NULL) // this can be called before the main window gets created

  0000c	83 3d 00 00 00
	00 00		 cmp	 DWORD PTR _hwnd_main, 0
  00013	75 05		 jne	 SHORT $LN2@update_dia

; 3693 :       return;

  00015	e9 c8 00 00 00	 jmp	 $LN1@update_dia
$LN2@update_dia:

; 3694 : 
; 3695 :    GetWindowRect(hwnd_dialog, &rc_dialog);

  0001a	8d 45 dc	 lea	 eax, DWORD PTR _rc_dialog$[ebp]
  0001d	50		 push	 eax
  0001e	8b 0d 00 00 00
	00		 mov	 ecx, DWORD PTR _hwnd_dialog
  00024	51		 push	 ecx
  00025	ff 15 00 00 00
	00		 call	 DWORD PTR __imp__GetWindowRect@8

; 3696 : 
; 3697 :    if (move)

  0002b	83 7d 0c 00	 cmp	 DWORD PTR _move$[ebp], 0
  0002f	74 65		 je	 SHORT $LN3@update_dia

; 3698 :    {
; 3699 :       hwnd_desktop = GetDesktopWindow();

  00031	ff 15 00 00 00
	00		 call	 DWORD PTR __imp__GetDesktopWindow@0
  00037	89 45 fc	 mov	 DWORD PTR _hwnd_desktop$[ebp], eax

; 3700 :       GetWindowRect(hwnd_main, &rc_owner);

  0003a	8d 45 ec	 lea	 eax, DWORD PTR _rc_owner$[ebp]
  0003d	50		 push	 eax
  0003e	8b 0d 00 00 00
	00		 mov	 ecx, DWORD PTR _hwnd_main
  00044	51		 push	 ecx
  00045	ff 15 00 00 00
	00		 call	 DWORD PTR __imp__GetWindowRect@8

; 3701 :       GetWindowRect(hwnd_desktop, &rc_desktop);

  0004b	8d 45 cc	 lea	 eax, DWORD PTR _rc_desktop$[ebp]
  0004e	50		 push	 eax
  0004f	8b 4d fc	 mov	 ecx, DWORD PTR _hwnd_desktop$[ebp]
  00052	51		 push	 ecx
  00053	ff 15 00 00 00
	00		 call	 DWORD PTR __imp__GetWindowRect@8

; 3702 : 
; 3703 :       xpos = rc_owner.right;

  00059	8b 45 f4	 mov	 eax, DWORD PTR _rc_owner$[ebp+8]
  0005c	89 45 c8	 mov	 DWORD PTR _xpos$[ebp], eax

; 3704 :       ypos = rc_owner.top;

  0005f	8b 45 f0	 mov	 eax, DWORD PTR _rc_owner$[ebp+4]
  00062	89 45 c4	 mov	 DWORD PTR _ypos$[ebp], eax

; 3705 : 
; 3706 :       // Clip so dialog doesn't go off the right end of the desktop. Also move down so
; 3707 :       // minimize/maximize buttons are still visible. Dialog right - left = width
; 3708 :       overhang = xpos + (rc_dialog.right - rc_dialog.left) - rc_desktop.right;

  00065	8b 45 e4	 mov	 eax, DWORD PTR _rc_dialog$[ebp+8]
  00068	2b 45 dc	 sub	 eax, DWORD PTR _rc_dialog$[ebp]
  0006b	03 45 c8	 add	 eax, DWORD PTR _xpos$[ebp]
  0006e	2b 45 d4	 sub	 eax, DWORD PTR _rc_desktop$[ebp+8]
  00071	89 45 c0	 mov	 DWORD PTR _overhang$[ebp], eax

; 3709 :       if (overhang > 0)

  00074	83 7d c0 00	 cmp	 DWORD PTR _overhang$[ebp], 0
  00078	7e 1a		 jle	 SHORT $LN5@update_dia

; 3710 :       {
; 3711 :          xpos -= overhang;

  0007a	8b 45 c8	 mov	 eax, DWORD PTR _xpos$[ebp]
  0007d	2b 45 c0	 sub	 eax, DWORD PTR _overhang$[ebp]
  00080	89 45 c8	 mov	 DWORD PTR _xpos$[ebp], eax

; 3712 :          ypos += y_border - y_thinborder;

  00083	a1 00 00 00 00	 mov	 eax, DWORD PTR _y_border
  00088	2b 05 00 00 00
	00		 sub	 eax, DWORD PTR _y_thinborder
  0008e	03 45 c4	 add	 eax, DWORD PTR _ypos$[ebp]
  00091	89 45 c4	 mov	 DWORD PTR _ypos$[ebp], eax
$LN5@update_dia:

; 3713 :       }
; 3714 :    }

  00094	eb 0c		 jmp	 SHORT $LN4@update_dia
$LN3@update_dia:

; 3715 :    else // keep at current position
; 3716 :    {
; 3717 :       xpos = rc_dialog.left;

  00096	8b 45 dc	 mov	 eax, DWORD PTR _rc_dialog$[ebp]
  00099	89 45 c8	 mov	 DWORD PTR _xpos$[ebp], eax

; 3718 :       ypos = rc_dialog.top;

  0009c	8b 45 e0	 mov	 eax, DWORD PTR _rc_dialog$[ebp+4]
  0009f	89 45 c4	 mov	 DWORD PTR _ypos$[ebp], eax
$LN4@update_dia:

; 3719 :    }
; 3720 : 
; 3721 :    SetWindowPos(hwnd_dialog, HWND_TOP, xpos, ypos, 0, 0, SWP_NOSIZE |

  000a2	83 7d 08 00	 cmp	 DWORD PTR _hide$[ebp], 0
  000a6	74 0c		 je	 SHORT $LN7@update_dia
  000a8	c7 85 7c ff ff
	ff 80 00 00 00	 mov	 DWORD PTR tv82[ebp], 128 ; 00000080H
  000b2	eb 0a		 jmp	 SHORT $LN8@update_dia
$LN7@update_dia:
  000b4	c7 85 7c ff ff
	ff 40 00 00 00	 mov	 DWORD PTR tv82[ebp], 64	; 00000040H
$LN8@update_dia:
  000be	8b 85 7c ff ff
	ff		 mov	 eax, DWORD PTR tv82[ebp]
  000c4	83 c8 01	 or	 eax, 1
  000c7	50		 push	 eax
  000c8	6a 00		 push	 0
  000ca	6a 00		 push	 0
  000cc	8b 4d c4	 mov	 ecx, DWORD PTR _ypos$[ebp]
  000cf	51		 push	 ecx
  000d0	8b 55 c8	 mov	 edx, DWORD PTR _xpos$[ebp]
  000d3	52		 push	 edx
  000d4	6a 00		 push	 0
  000d6	a1 00 00 00 00	 mov	 eax, DWORD PTR _hwnd_dialog
  000db	50		 push	 eax
  000dc	ff 15 00 00 00
	00		 call	 DWORD PTR __imp__SetWindowPos@28
$LN1@update_dia:

; 3722 :                (hide ? SWP_HIDEWINDOW : SWP_SHOWWINDOW) );
; 3723 : }

  000e2	5f		 pop	 edi
  000e3	5e		 pop	 esi
  000e4	5b		 pop	 ebx
  000e5	8b e5		 mov	 esp, ebp
  000e7	5d		 pop	 ebp
  000e8	c3		 ret	 0
_update_dialog ENDP
_TEXT	ENDS
; Function compile flags: /Odtp /ZI
; File d:\stanley\desktop\quickman_v110\source\quickman.c
;	COMDAT _get_system_metrics
_TEXT	SEGMENT
_get_system_metrics PROC				; COMDAT

; 3672 : {

  00000	55		 push	 ebp
  00001	8b ec		 mov	 ebp, esp
  00003	83 ec 40	 sub	 esp, 64			; 00000040H
  00006	53		 push	 ebx
  00007	56		 push	 esi
  00008	57		 push	 edi

; 3673 :    x_border = 2 * GetSystemMetrics(SM_CXSIZEFRAME);

  00009	6a 20		 push	 32			; 00000020H
  0000b	ff 15 00 00 00
	00		 call	 DWORD PTR __imp__GetSystemMetrics@4
  00011	d1 e0		 shl	 eax, 1
  00013	a3 00 00 00 00	 mov	 DWORD PTR _x_border, eax

; 3674 :    y_border = 2 * (y_thinborder = GetSystemMetrics(SM_CYSIZEFRAME)) + GetSystemMetrics(SM_CYCAPTION);

  00018	6a 21		 push	 33			; 00000021H
  0001a	ff 15 00 00 00
	00		 call	 DWORD PTR __imp__GetSystemMetrics@4
  00020	a3 00 00 00 00	 mov	 DWORD PTR _y_thinborder, eax
  00025	6a 04		 push	 4
  00027	ff 15 00 00 00
	00		 call	 DWORD PTR __imp__GetSystemMetrics@4
  0002d	8b 0d 00 00 00
	00		 mov	 ecx, DWORD PTR _y_thinborder
  00033	8d 14 48	 lea	 edx, DWORD PTR [eax+ecx*2]
  00036	89 15 00 00 00
	00		 mov	 DWORD PTR _y_border, edx

; 3675 : 
; 3676 :    // X/Y reversed on these
; 3677 :    x_dialog_border = 2 * GetSystemMetrics(SM_CYFIXEDFRAME);

  0003c	6a 08		 push	 8
  0003e	ff 15 00 00 00
	00		 call	 DWORD PTR __imp__GetSystemMetrics@4
  00044	d1 e0		 shl	 eax, 1
  00046	a3 00 00 00 00	 mov	 DWORD PTR _x_dialog_border, eax

; 3678 :    y_dialog_border = 2 * GetSystemMetrics(SM_CXFIXEDFRAME) + GetSystemMetrics(SM_CYSMCAPTION);

  0004b	6a 07		 push	 7
  0004d	ff 15 00 00 00
	00		 call	 DWORD PTR __imp__GetSystemMetrics@4
  00053	8b f0		 mov	 esi, eax
  00055	6a 33		 push	 51			; 00000033H
  00057	ff 15 00 00 00
	00		 call	 DWORD PTR __imp__GetSystemMetrics@4
  0005d	8d 04 70	 lea	 eax, DWORD PTR [eax+esi*2]
  00060	a3 00 00 00 00	 mov	 DWORD PTR _y_dialog_border, eax

; 3679 : 
; 3680 :    // Get font size. Assumes x/y pixels per inch are the same. Returns 96 for normal, 120 for large.
; 3681 :    lpix_per_inch = GetDeviceCaps(GetDC(NULL), LOGPIXELSX);

  00065	6a 58		 push	 88			; 00000058H
  00067	6a 00		 push	 0
  00069	ff 15 00 00 00
	00		 call	 DWORD PTR __imp__GetDC@4
  0006f	50		 push	 eax
  00070	ff 15 00 00 00
	00		 call	 DWORD PTR __imp__GetDeviceCaps@8
  00076	a3 00 00 00 00	 mov	 DWORD PTR _lpix_per_inch, eax

; 3682 : }

  0007b	5f		 pop	 edi
  0007c	5e		 pop	 esi
  0007d	5b		 pop	 ebx
  0007e	8b e5		 mov	 esp, ebp
  00080	5d		 pop	 ebp
  00081	c3		 ret	 0
_get_system_metrics ENDP
_TEXT	ENDS
; Function compile flags: /Odtp /ZI
; File d:\stanley\desktop\quickman_v110\source\quickman.c
;	COMDAT _check_alg
_TEXT	SEGMENT
tv140 = -72						; size = 4
_m$ = -4						; size = 4
_hwnd$ = 8						; size = 4
_check_alg PROC						; COMDAT

; 3584 : {

  00000	55		 push	 ebp
  00001	8b ec		 mov	 ebp, esp
  00003	83 ec 48	 sub	 esp, 72			; 00000048H
  00006	53		 push	 ebx
  00007	56		 push	 esi
  00008	57		 push	 edi

; 3585 :    man_calc_struct *m;
; 3586 : 
; 3587 :    m = &main_man_calc_struct;

  00009	c7 45 fc 00 00
	00 00		 mov	 DWORD PTR _m$[ebp], OFFSET _main_man_calc_struct

; 3588 :    m->precision = get_precision();

  00010	e8 00 00 00 00	 call	 _get_precision
  00015	8b 4d fc	 mov	 ecx, DWORD PTR _m$[ebp]
  00018	89 81 d0 8d 00
	00		 mov	 DWORD PTR [ecx+36304], eax

; 3589 :    m->alg = get_alg();

  0001e	e8 00 00 00 00	 call	 _get_alg
  00023	8b 4d fc	 mov	 ecx, DWORD PTR _m$[ebp]
  00026	89 81 c8 8d 00
	00		 mov	 DWORD PTR [ecx+36296], eax

; 3590 :    m->rendering_alg = get_rendering_alg();

  0002c	e8 00 00 00 00	 call	 _get_rendering_alg
  00031	8b 4d fc	 mov	 ecx, DWORD PTR _m$[ebp]
  00034	89 81 04 8e 00
	00		 mov	 DWORD PTR [ecx+36356], eax

; 3591 :    if (m->precision == PRECISION_EXTENDED)

  0003a	8b 45 fc	 mov	 eax, DWORD PTR _m$[ebp]
  0003d	83 b8 d0 8d 00
	00 03		 cmp	 DWORD PTR [eax+36304], 3
  00044	75 1f		 jne	 SHORT $LN2@check_alg

; 3592 :    {
; 3593 :       not_implemented_yet();

  00046	e8 00 00 00 00	 call	 _not_implemented_yet

; 3594 :       SendDlgItemMessage(hwnd, IDC_PRECISION, CB_SETCURSEL, PRECISION_DOUBLE, 0);

  0004b	6a 00		 push	 0
  0004d	6a 02		 push	 2
  0004f	68 4e 01 00 00	 push	 334			; 0000014eH
  00054	68 f2 03 00 00	 push	 1010			; 000003f2H
  00059	8b 45 08	 mov	 eax, DWORD PTR _hwnd$[ebp]
  0005c	50		 push	 eax
  0005d	ff 15 00 00 00
	00		 call	 DWORD PTR __imp__SendDlgItemMessageA@20

; 3595 :    }

  00063	eb 76		 jmp	 SHORT $LN3@check_alg
$LN2@check_alg:

; 3596 :    else if (m->precision == PRECISION_DOUBLE)

  00065	8b 45 fc	 mov	 eax, DWORD PTR _m$[ebp]
  00068	83 b8 d0 8d 00
	00 02		 cmp	 DWORD PTR [eax+36304], 2
  0006f	75 36		 jne	 SHORT $LN4@check_alg

; 3597 :    {
; 3598 :       if (sse_support < 2 && !(m->alg & ALG_C)) // If CPU doesn't support SSE2, can only run C version

  00071	83 3d 00 00 00
	00 02		 cmp	 DWORD PTR _sse_support, 2
  00078	7d 2b		 jge	 SHORT $LN6@check_alg
  0007a	8b 45 fc	 mov	 eax, DWORD PTR _m$[ebp]
  0007d	8b 88 c8 8d 00
	00		 mov	 ecx, DWORD PTR [eax+36296]
  00083	83 e1 04	 and	 ecx, 4
  00086	75 1d		 jne	 SHORT $LN6@check_alg

; 3599 :       {
; 3600 :          unsupported_alg_prec();

  00088	e8 00 00 00 00	 call	 _unsupported_alg_prec

; 3601 :          SendDlgItemMessage(hwnd, IDC_ALGORITHM, CB_SETCURSEL, ALG_FAST_C, 0);

  0008d	6a 00		 push	 0
  0008f	6a 04		 push	 4
  00091	68 4e 01 00 00	 push	 334			; 0000014eH
  00096	68 05 04 00 00	 push	 1029			; 00000405H
  0009b	8b 45 08	 mov	 eax, DWORD PTR _hwnd$[ebp]
  0009e	50		 push	 eax
  0009f	ff 15 00 00 00
	00		 call	 DWORD PTR __imp__SendDlgItemMessageA@20
$LN6@check_alg:

; 3602 :       }
; 3603 :    }

  000a5	eb 34		 jmp	 SHORT $LN3@check_alg
$LN4@check_alg:

; 3604 :    else
; 3605 :    {
; 3606 :       if (!sse_support && !(m->alg & ALG_C)) // If CPU doesn't support SSE, can only run C version

  000a7	83 3d 00 00 00
	00 00		 cmp	 DWORD PTR _sse_support, 0
  000ae	75 2b		 jne	 SHORT $LN3@check_alg
  000b0	8b 45 fc	 mov	 eax, DWORD PTR _m$[ebp]
  000b3	8b 88 c8 8d 00
	00		 mov	 ecx, DWORD PTR [eax+36296]
  000b9	83 e1 04	 and	 ecx, 4
  000bc	75 1d		 jne	 SHORT $LN3@check_alg

; 3607 :       {
; 3608 :          unsupported_alg_prec();

  000be	e8 00 00 00 00	 call	 _unsupported_alg_prec

; 3609 :          SendDlgItemMessage(hwnd, IDC_ALGORITHM, CB_SETCURSEL, ALG_FAST_C, 0);

  000c3	6a 00		 push	 0
  000c5	6a 04		 push	 4
  000c7	68 4e 01 00 00	 push	 334			; 0000014eH
  000cc	68 05 04 00 00	 push	 1029			; 00000405H
  000d1	8b 45 08	 mov	 eax, DWORD PTR _hwnd$[ebp]
  000d4	50		 push	 eax
  000d5	ff 15 00 00 00
	00		 call	 DWORD PTR __imp__SendDlgItemMessageA@20
$LN3@check_alg:

; 3610 :       }
; 3611 :    }
; 3612 : 
; 3613 :    // Give user a choice to switch to exact alg if using normalized rendering
; 3614 : 
; 3615 :    if (!(m->alg & ALG_EXACT) && (m->rendering_alg == RALG_NORMALIZED))

  000db	8b 45 fc	 mov	 eax, DWORD PTR _m$[ebp]
  000de	8b 88 c8 8d 00
	00		 mov	 ecx, DWORD PTR [eax+36296]
  000e4	83 e1 01	 and	 ecx, 1
  000e7	75 58		 jne	 SHORT $LN8@check_alg
  000e9	8b 45 fc	 mov	 eax, DWORD PTR _m$[ebp]
  000ec	83 b8 04 8e 00
	00 01		 cmp	 DWORD PTR [eax+36356], 1
  000f3	75 4c		 jne	 SHORT $LN8@check_alg

; 3616 :       if (unrecommended_alg() == IDYES)

  000f5	e8 00 00 00 00	 call	 _unrecommended_alg
  000fa	83 f8 06	 cmp	 eax, 6
  000fd	75 42		 jne	 SHORT $LN8@check_alg

; 3617 :       {
; 3618 :          SendDlgItemMessage(hwnd, IDC_ALGORITHM, CB_SETCURSEL, m->alg |= ALG_EXACT, 0);

  000ff	8b 45 fc	 mov	 eax, DWORD PTR _m$[ebp]
  00102	8b 88 c8 8d 00
	00		 mov	 ecx, DWORD PTR [eax+36296]
  00108	83 c9 01	 or	 ecx, 1
  0010b	89 4d b8	 mov	 DWORD PTR tv140[ebp], ecx
  0010e	8b 55 fc	 mov	 edx, DWORD PTR _m$[ebp]
  00111	8b 45 b8	 mov	 eax, DWORD PTR tv140[ebp]
  00114	89 82 c8 8d 00
	00		 mov	 DWORD PTR [edx+36296], eax
  0011a	6a 00		 push	 0
  0011c	8b 4d b8	 mov	 ecx, DWORD PTR tv140[ebp]
  0011f	51		 push	 ecx
  00120	68 4e 01 00 00	 push	 334			; 0000014eH
  00125	68 05 04 00 00	 push	 1029			; 00000405H
  0012a	8b 55 08	 mov	 edx, DWORD PTR _hwnd$[ebp]
  0012d	52		 push	 edx
  0012e	ff 15 00 00 00
	00		 call	 DWORD PTR __imp__SendDlgItemMessageA@20

; 3619 :          status |= STAT_RECALC_FOR_PALETTE; // need to recalc if switching to exact

  00134	a1 00 00 00 00	 mov	 eax, DWORD PTR _status
  00139	83 c8 02	 or	 eax, 2
  0013c	a3 00 00 00 00	 mov	 DWORD PTR _status, eax
$LN8@check_alg:

; 3620 :       }
; 3621 :    set_alg_warning();

  00141	e8 00 00 00 00	 call	 _set_alg_warning

; 3622 : }

  00146	5f		 pop	 edi
  00147	5e		 pop	 esi
  00148	5b		 pop	 ebx
  00149	8b e5		 mov	 esp, ebp
  0014b	5d		 pop	 ebp
  0014c	c3		 ret	 0
_check_alg ENDP
_TEXT	ENDS
; Function compile flags: /Odtp /ZI
; File d:\stanley\desktop\quickman_v110\source\quickman.c
;	COMDAT _set_alg_warning
_TEXT	SEGMENT
_m$ = -36						; size = 4
_s$ = -32						; size = 32
_set_alg_warning PROC					; COMDAT

; 3570 : {

  00000	55		 push	 ebp
  00001	8b ec		 mov	 ebp, esp
  00003	83 ec 64	 sub	 esp, 100		; 00000064H
  00006	53		 push	 ebx
  00007	56		 push	 esi
  00008	57		 push	 edi

; 3571 :    char s[32];
; 3572 :    man_calc_struct *m;
; 3573 : 
; 3574 :    m = &main_man_calc_struct;

  00009	c7 45 dc 00 00
	00 00		 mov	 DWORD PTR _m$[ebp], OFFSET _main_man_calc_struct

; 3575 :    sprintf_s(s, sizeof(s), "  Algorithm");

  00010	68 00 00 00 00	 push	 OFFSET $SG41732
  00015	6a 20		 push	 32			; 00000020H
  00017	8d 45 e0	 lea	 eax, DWORD PTR _s$[ebp]
  0001a	50		 push	 eax
  0001b	e8 00 00 00 00	 call	 _sprintf_s
  00020	83 c4 0c	 add	 esp, 12			; 0000000cH

; 3576 :    if (!(m->alg & ALG_EXACT) && (m->rendering_alg == RALG_NORMALIZED))

  00023	8b 45 dc	 mov	 eax, DWORD PTR _m$[ebp]
  00026	8b 88 c8 8d 00
	00		 mov	 ecx, DWORD PTR [eax+36296]
  0002c	83 e1 01	 and	 ecx, 1
  0002f	75 19		 jne	 SHORT $LN2@set_alg_wa
  00031	8b 45 dc	 mov	 eax, DWORD PTR _m$[ebp]
  00034	83 b8 04 8e 00
	00 01		 cmp	 DWORD PTR [eax+36356], 1
  0003b	75 0d		 jne	 SHORT $LN2@set_alg_wa

; 3577 :       s[0] = '!';

  0003d	b8 01 00 00 00	 mov	 eax, 1
  00042	6b c8 00	 imul	 ecx, eax, 0
  00045	c6 44 0d e0 21	 mov	 BYTE PTR _s$[ebp+ecx], 33 ; 00000021H
$LN2@set_alg_wa:

; 3578 :    SetWindowText(GetDlgItem(hwnd_dialog, IDC_ALGORITHM_TEXT), s);

  0004a	8d 45 e0	 lea	 eax, DWORD PTR _s$[ebp]
  0004d	50		 push	 eax
  0004e	68 1f 04 00 00	 push	 1055			; 0000041fH
  00053	8b 0d 00 00 00
	00		 mov	 ecx, DWORD PTR _hwnd_dialog
  00059	51		 push	 ecx
  0005a	ff 15 00 00 00
	00		 call	 DWORD PTR __imp__GetDlgItem@8
  00060	50		 push	 eax
  00061	ff 15 00 00 00
	00		 call	 DWORD PTR __imp__SetWindowTextA@8

; 3579 : }

  00067	5f		 pop	 edi
  00068	5e		 pop	 esi
  00069	5b		 pop	 ebx
  0006a	8b e5		 mov	 esp, ebp
  0006c	5d		 pop	 ebp
  0006d	c3		 ret	 0
_set_alg_warning ENDP
_TEXT	ENDS
; Function compile flags: /Odtp /ZI
; File d:\stanley\desktop\quickman_v110\source\quickman.c
;	COMDAT _unrecommended_alg
_TEXT	SEGMENT
_unrecommended_alg PROC					; COMDAT

; 3560 : {

  00000	55		 push	 ebp
  00001	8b ec		 mov	 ebp, esp
  00003	83 ec 40	 sub	 esp, 64			; 00000040H
  00006	53		 push	 ebx
  00007	56		 push	 esi
  00008	57		 push	 edi

; 3561 :    return MessageBox(NULL, "Using the Fast algorithm with Normalized rendering may\n"

  00009	68 34 20 00 00	 push	 8244			; 00002034H
  0000e	68 00 00 00 00	 push	 OFFSET $SG41723
  00013	68 00 00 00 00	 push	 OFFSET $SG41724
  00018	6a 00		 push	 0
  0001a	ff 15 00 00 00
	00		 call	 DWORD PTR __imp__MessageBoxA@16

; 3562 :                            "cause image artifacts. Switch to the Exact algorithm?",
; 3563 :                            "Warning", MB_YESNO | MB_ICONWARNING | MB_TASKMODAL);
; 3564 : }

  00020	5f		 pop	 edi
  00021	5e		 pop	 esi
  00022	5b		 pop	 ebx
  00023	8b e5		 mov	 esp, ebp
  00025	5d		 pop	 ebp
  00026	c3		 ret	 0
_unrecommended_alg ENDP
_TEXT	ENDS
; Function compile flags: /Odtp /ZI
; File d:\stanley\desktop\quickman_v110\source\quickman.c
;	COMDAT _unsupported_alg_prec
_TEXT	SEGMENT
_unsupported_alg_prec PROC				; COMDAT

; 3554 : {

  00000	55		 push	 ebp
  00001	8b ec		 mov	 ebp, esp
  00003	83 ec 40	 sub	 esp, 64			; 00000040H
  00006	53		 push	 ebx
  00007	56		 push	 esi
  00008	57		 push	 edi

; 3555 :    MessageBox(NULL, "Your (obsolete) CPU cannot run this algorithm/precision combination.\n"

  00009	68 10 20 00 00	 push	 8208			; 00002010H
  0000e	6a 00		 push	 0
  00010	68 00 00 00 00	 push	 OFFSET $SG41716
  00015	6a 00		 push	 0
  00017	ff 15 00 00 00
	00		 call	 DWORD PTR __imp__MessageBoxA@16

; 3556 :                     "Using C algorithm.", NULL, MB_OK | MB_ICONSTOP | MB_TASKMODAL);
; 3557 : }

  0001d	5f		 pop	 edi
  0001e	5e		 pop	 esi
  0001f	5b		 pop	 ebx
  00020	8b e5		 mov	 esp, ebp
  00022	5d		 pop	 ebp
  00023	c3		 ret	 0
_unsupported_alg_prec ENDP
_TEXT	ENDS
; Function compile flags: /Odtp /ZI
; File d:\stanley\desktop\quickman_v110\source\quickman.c
;	COMDAT _not_implemented_yet
_TEXT	SEGMENT
_not_implemented_yet PROC				; COMDAT

; 3549 : {

  00000	55		 push	 ebp
  00001	8b ec		 mov	 ebp, esp
  00003	83 ec 40	 sub	 esp, 64			; 00000040H
  00006	53		 push	 ebx
  00007	56		 push	 esi
  00008	57		 push	 edi

; 3550 :    MessageBox(NULL, "This feature is not implemented yet.", NULL, MB_OK | MB_ICONSTOP | MB_TASKMODAL);

  00009	68 10 20 00 00	 push	 8208			; 00002010H
  0000e	6a 00		 push	 0
  00010	68 00 00 00 00	 push	 OFFSET $SG41708
  00015	6a 00		 push	 0
  00017	ff 15 00 00 00
	00		 call	 DWORD PTR __imp__MessageBoxA@16

; 3551 : }

  0001d	5f		 pop	 edi
  0001e	5e		 pop	 esi
  0001f	5b		 pop	 ebx
  00020	8b e5		 mov	 esp, ebp
  00022	5d		 pop	 ebp
  00023	c3		 ret	 0
_not_implemented_yet ENDP
_TEXT	ENDS
; Function compile flags: /Odtp /ZI
; File d:\stanley\desktop\quickman_v110\source\quickman.c
;	COMDAT _print_palette_status
_TEXT	SEGMENT
tv69 = -104						; size = 4
_m$ = -36						; size = 4
_s$ = -32						; size = 32
_print_palette_status PROC				; COMDAT

; 3539 : {

  00000	55		 push	 ebp
  00001	8b ec		 mov	 ebp, esp
  00003	83 ec 68	 sub	 esp, 104		; 00000068H
  00006	53		 push	 ebx
  00007	56		 push	 esi
  00008	57		 push	 edi

; 3540 :    char s[32];
; 3541 :    man_calc_struct *m;
; 3542 : 
; 3543 :    m = &main_man_calc_struct;

  00009	c7 45 dc 00 00
	00 00		 mov	 DWORD PTR _m$[ebp], OFFSET _main_man_calc_struct

; 3544 :    sprintf_s(s, sizeof(s), "%c Palette", (status & STAT_PALETTE_LOCKED) || m->pal_xor ? '*' : ' ');

  00010	a1 00 00 00 00	 mov	 eax, DWORD PTR _status
  00015	83 e0 20	 and	 eax, 32			; 00000020H
  00018	75 15		 jne	 SHORT $LN3@print_pale
  0001a	8b 4d dc	 mov	 ecx, DWORD PTR _m$[ebp]
  0001d	83 b9 fc 8d 00
	00 00		 cmp	 DWORD PTR [ecx+36348], 0
  00024	75 09		 jne	 SHORT $LN3@print_pale
  00026	c7 45 98 20 00
	00 00		 mov	 DWORD PTR tv69[ebp], 32	; 00000020H
  0002d	eb 07		 jmp	 SHORT $LN4@print_pale
$LN3@print_pale:
  0002f	c7 45 98 2a 00
	00 00		 mov	 DWORD PTR tv69[ebp], 42	; 0000002aH
$LN4@print_pale:
  00036	8b 55 98	 mov	 edx, DWORD PTR tv69[ebp]
  00039	52		 push	 edx
  0003a	68 00 00 00 00	 push	 OFFSET $SG41700
  0003f	6a 20		 push	 32			; 00000020H
  00041	8d 45 e0	 lea	 eax, DWORD PTR _s$[ebp]
  00044	50		 push	 eax
  00045	e8 00 00 00 00	 call	 _sprintf_s
  0004a	83 c4 10	 add	 esp, 16			; 00000010H

; 3545 :    SetWindowText(GetDlgItem(hwnd_dialog, IDC_PAL_TEXT), s);

  0004d	8d 45 e0	 lea	 eax, DWORD PTR _s$[ebp]
  00050	50		 push	 eax
  00051	68 1d 04 00 00	 push	 1053			; 0000041dH
  00056	8b 0d 00 00 00
	00		 mov	 ecx, DWORD PTR _hwnd_dialog
  0005c	51		 push	 ecx
  0005d	ff 15 00 00 00
	00		 call	 DWORD PTR __imp__GetDlgItem@8
  00063	50		 push	 eax
  00064	ff 15 00 00 00
	00		 call	 DWORD PTR __imp__SetWindowTextA@8

; 3546 : }

  0006a	5f		 pop	 edi
  0006b	5e		 pop	 esi
  0006c	5b		 pop	 ebx
  0006d	8b e5		 mov	 esp, ebp
  0006f	5d		 pop	 ebp
  00070	c3		 ret	 0
_print_palette_status ENDP
_TEXT	ENDS
; Function compile flags: /Odtp /ZI
; File d:\stanley\desktop\quickman_v110\source\quickman.c
;	COMDAT _print_status_line
_TEXT	SEGMENT
tv73 = -208						; size = 4
tv84 = -204						; size = 4
tv68 = -204						; size = 4
tv85 = -200						; size = 4
tv70 = -200						; size = 4
_m$ = -132						; size = 4
_s$ = -128						; size = 128
_calc$ = 8						; size = 4
_print_status_line PROC					; COMDAT

; 3517 : {

  00000	55		 push	 ebp
  00001	8b ec		 mov	 ebp, esp
  00003	81 ec d0 00 00
	00		 sub	 esp, 208		; 000000d0H
  00009	53		 push	 ebx
  0000a	56		 push	 esi
  0000b	57		 push	 edi

; 3518 :    char s[128];
; 3519 :    man_calc_struct *m;
; 3520 : 
; 3521 :    m = &main_man_calc_struct;

  0000c	c7 85 7c ff ff
	ff 00 00 00 00	 mov	 DWORD PTR _m$[ebp], OFFSET _main_man_calc_struct

; 3522 : 
; 3523 :    if (!(status & STAT_DOING_SAVE)) // if currently saving, keep saving status in first part of line

  00016	a1 00 00 00 00	 mov	 eax, DWORD PTR _status
  0001b	25 80 00 00 00	 and	 eax, 128		; 00000080H
  00020	0f 85 8e 00 00
	00		 jne	 $LN2@print_stat

; 3524 :    {
; 3525 :       sprintf_s(s, sizeof(s), "%s%s", calc ? "Calculating..." : "Ready ",

  00026	83 7d 08 00	 cmp	 DWORD PTR _calc$[ebp], 0
  0002a	74 0c		 je	 SHORT $LN6@print_stat
  0002c	c7 85 38 ff ff
	ff 00 00 00 00	 mov	 DWORD PTR tv70[ebp], OFFSET $SG41686
  00036	eb 2b		 jmp	 SHORT $LN7@print_stat
$LN6@print_stat:
  00038	83 3d 00 00 00
	00 00		 cmp	 DWORD PTR _precision_loss, 0
  0003f	74 0c		 je	 SHORT $LN4@print_stat
  00041	c7 85 34 ff ff
	ff 00 00 00 00	 mov	 DWORD PTR tv68[ebp], OFFSET $SG41687
  0004b	eb 0a		 jmp	 SHORT $LN5@print_stat
$LN4@print_stat:
  0004d	c7 85 34 ff ff
	ff 00 00 00 00	 mov	 DWORD PTR tv68[ebp], OFFSET $SG41688
$LN5@print_stat:
  00057	8b 85 34 ff ff
	ff		 mov	 eax, DWORD PTR tv68[ebp]
  0005d	89 85 38 ff ff
	ff		 mov	 DWORD PTR tv70[ebp], eax
$LN7@print_stat:
  00063	83 7d 08 00	 cmp	 DWORD PTR _calc$[ebp], 0
  00067	74 0c		 je	 SHORT $LN8@print_stat
  00069	c7 85 30 ff ff
	ff 00 00 00 00	 mov	 DWORD PTR tv73[ebp], OFFSET $SG41689
  00073	eb 0a		 jmp	 SHORT $LN9@print_stat
$LN8@print_stat:
  00075	c7 85 30 ff ff
	ff 00 00 00 00	 mov	 DWORD PTR tv73[ebp], OFFSET $SG41690
$LN9@print_stat:
  0007f	8b 8d 38 ff ff
	ff		 mov	 ecx, DWORD PTR tv70[ebp]
  00085	51		 push	 ecx
  00086	8b 95 30 ff ff
	ff		 mov	 edx, DWORD PTR tv73[ebp]
  0008c	52		 push	 edx
  0008d	68 00 00 00 00	 push	 OFFSET $SG41691
  00092	68 80 00 00 00	 push	 128			; 00000080H
  00097	8d 45 80	 lea	 eax, DWORD PTR _s$[ebp]
  0009a	50		 push	 eax
  0009b	e8 00 00 00 00	 call	 _sprintf_s
  000a0	83 c4 14	 add	 esp, 20			; 00000014H

; 3526 :                 calc ? "" : precision_loss ? "[Prec Loss]" : "");
; 3527 : 
; 3528 :       SetWindowText(hwnd_status, s);

  000a3	8d 45 80	 lea	 eax, DWORD PTR _s$[ebp]
  000a6	50		 push	 eax
  000a7	8b 0d 00 00 00
	00		 mov	 ecx, DWORD PTR _hwnd_status
  000ad	51		 push	 ecx
  000ae	ff 15 00 00 00
	00		 call	 DWORD PTR __imp__SetWindowTextA@8
$LN2@print_stat:

; 3529 :    }
; 3530 : 
; 3531 :    sprintf_s(s, sizeof(s), "%d/%d  %c", log_pos + 1, log_count,

  000b4	8b 85 7c ff ff
	ff		 mov	 eax, DWORD PTR _m$[ebp]
  000ba	83 b8 d0 8d 00
	00 01		 cmp	 DWORD PTR [eax+36304], 1
  000c1	75 0c		 jne	 SHORT $LN12@print_stat
  000c3	c7 85 38 ff ff
	ff 53 00 00 00	 mov	 DWORD PTR tv85[ebp], 83	; 00000053H
  000cd	eb 31		 jmp	 SHORT $LN13@print_stat
$LN12@print_stat:
  000cf	8b 8d 7c ff ff
	ff		 mov	 ecx, DWORD PTR _m$[ebp]
  000d5	83 b9 d0 8d 00
	00 02		 cmp	 DWORD PTR [ecx+36304], 2
  000dc	75 0c		 jne	 SHORT $LN10@print_stat
  000de	c7 85 34 ff ff
	ff 44 00 00 00	 mov	 DWORD PTR tv84[ebp], 68	; 00000044H
  000e8	eb 0a		 jmp	 SHORT $LN11@print_stat
$LN10@print_stat:
  000ea	c7 85 34 ff ff
	ff 45 00 00 00	 mov	 DWORD PTR tv84[ebp], 69	; 00000045H
$LN11@print_stat:
  000f4	8b 95 34 ff ff
	ff		 mov	 edx, DWORD PTR tv84[ebp]
  000fa	89 95 38 ff ff
	ff		 mov	 DWORD PTR tv85[ebp], edx
$LN13@print_stat:
  00100	8b 85 38 ff ff
	ff		 mov	 eax, DWORD PTR tv85[ebp]
  00106	50		 push	 eax
  00107	8b 0d 00 00 00
	00		 mov	 ecx, DWORD PTR _log_count
  0010d	51		 push	 ecx
  0010e	8b 15 00 00 00
	00		 mov	 edx, DWORD PTR _log_pos
  00114	83 c2 01	 add	 edx, 1
  00117	52		 push	 edx
  00118	68 00 00 00 00	 push	 OFFSET $SG41692
  0011d	68 80 00 00 00	 push	 128			; 00000080H
  00122	8d 45 80	 lea	 eax, DWORD PTR _s$[ebp]
  00125	50		 push	 eax
  00126	e8 00 00 00 00	 call	 _sprintf_s
  0012b	83 c4 18	 add	 esp, 24			; 00000018H

; 3532 :              m->precision == PRECISION_SINGLE ? 'S' : m->precision == PRECISION_DOUBLE ? 'D' : 'E');
; 3533 :    SetWindowText(hwnd_status2, s);

  0012e	8d 45 80	 lea	 eax, DWORD PTR _s$[ebp]
  00131	50		 push	 eax
  00132	8b 0d 00 00 00
	00		 mov	 ecx, DWORD PTR _hwnd_status2
  00138	51		 push	 ecx
  00139	ff 15 00 00 00
	00		 call	 DWORD PTR __imp__SetWindowTextA@8

; 3534 : }

  0013f	5f		 pop	 edi
  00140	5e		 pop	 esi
  00141	5b		 pop	 ebx
  00142	8b e5		 mov	 esp, ebp
  00144	5d		 pop	 ebp
  00145	c3		 ret	 0
_print_status_line ENDP
_TEXT	ENDS
; Function compile flags: /Odtp /ZI
; File d:\stanley\desktop\quickman_v110\source\quickman.c
;	COMDAT _setup_sliders
_TEXT	SEGMENT
_setup_sliders PROC					; COMDAT

; 3508 : {

  00000	55		 push	 ebp
  00001	8b ec		 mov	 ebp, esp
  00003	83 ec 40	 sub	 esp, 64			; 00000040H
  00006	53		 push	 ebx
  00007	56		 push	 esi
  00008	57		 push	 edi

; 3509 :    cfg_settings.pan_rate.val = set_slider_pos(IDC_PAN_RATE, cfg_settings.pan_rate.val);

  00009	a1 04 00 00 00	 mov	 eax, DWORD PTR _cfg_settings+4
  0000e	50		 push	 eax
  0000f	68 17 04 00 00	 push	 1047			; 00000417H
  00014	e8 00 00 00 00	 call	 _set_slider_pos
  00019	83 c4 08	 add	 esp, 8
  0001c	a3 04 00 00 00	 mov	 DWORD PTR _cfg_settings+4, eax

; 3510 :    cfg_settings.zoom_rate.val = set_slider_pos(IDC_ZOOM_RATE, cfg_settings.zoom_rate.val);

  00021	a1 2c 00 00 00	 mov	 eax, DWORD PTR _cfg_settings+44
  00026	50		 push	 eax
  00027	68 18 04 00 00	 push	 1048			; 00000418H
  0002c	e8 00 00 00 00	 call	 _set_slider_pos
  00031	83 c4 08	 add	 esp, 8
  00034	a3 2c 00 00 00	 mov	 DWORD PTR _cfg_settings+44, eax

; 3511 : }

  00039	5f		 pop	 edi
  0003a	5e		 pop	 esi
  0003b	5b		 pop	 ebx
  0003c	8b e5		 mov	 esp, ebp
  0003e	5d		 pop	 ebp
  0003f	c3		 ret	 0
_setup_sliders ENDP
_TEXT	ENDS
; Function compile flags: /Odtp /ZI
; File d:\stanley\desktop\quickman_v110\source\quickman.c
;	COMDAT _set_slider_pos
_TEXT	SEGMENT
_dlg_item$ = 8						; size = 4
_pos$ = 12						; size = 4
_set_slider_pos PROC					; COMDAT

; 3502 : {

  00000	55		 push	 ebp
  00001	8b ec		 mov	 ebp, esp
  00003	83 ec 40	 sub	 esp, 64			; 00000040H
  00006	53		 push	 ebx
  00007	56		 push	 esi
  00008	57		 push	 edi

; 3503 :    SendDlgItemMessage(hwnd_dialog, dlg_item, TBM_SETPOS, TRUE, (LONG)pos);

  00009	8b 45 0c	 mov	 eax, DWORD PTR _pos$[ebp]
  0000c	50		 push	 eax
  0000d	6a 01		 push	 1
  0000f	68 05 04 00 00	 push	 1029			; 00000405H
  00014	8b 4d 08	 mov	 ecx, DWORD PTR _dlg_item$[ebp]
  00017	51		 push	 ecx
  00018	8b 15 00 00 00
	00		 mov	 edx, DWORD PTR _hwnd_dialog
  0001e	52		 push	 edx
  0001f	ff 15 00 00 00
	00		 call	 DWORD PTR __imp__SendDlgItemMessageA@20

; 3504 :    return (int) SendDlgItemMessage(hwnd_dialog, dlg_item, TBM_GETPOS, 0, 0);

  00025	6a 00		 push	 0
  00027	6a 00		 push	 0
  00029	68 00 04 00 00	 push	 1024			; 00000400H
  0002e	8b 45 08	 mov	 eax, DWORD PTR _dlg_item$[ebp]
  00031	50		 push	 eax
  00032	8b 0d 00 00 00
	00		 mov	 ecx, DWORD PTR _hwnd_dialog
  00038	51		 push	 ecx
  00039	ff 15 00 00 00
	00		 call	 DWORD PTR __imp__SendDlgItemMessageA@20

; 3505 : }

  0003f	5f		 pop	 edi
  00040	5e		 pop	 esi
  00041	5b		 pop	 ebx
  00042	8b e5		 mov	 esp, ebp
  00044	5d		 pop	 ebp
  00045	c3		 ret	 0
_set_slider_pos ENDP
_TEXT	ENDS
; Function compile flags: /Odtp /ZI
; File d:\stanley\desktop\quickman_v110\source\quickman.c
;	COMDAT _get_dialog_fields
_TEXT	SEGMENT
_m$ = -4						; size = 4
_get_dialog_fields PROC					; COMDAT

; 3476 : {

  00000	55		 push	 ebp
  00001	8b ec		 mov	 ebp, esp
  00003	83 ec 44	 sub	 esp, 68			; 00000044H
  00006	53		 push	 ebx
  00007	56		 push	 esi
  00008	57		 push	 edi

; 3477 :    man_calc_struct *m;
; 3478 : 
; 3479 :    m = &main_man_calc_struct;

  00009	c7 45 fc 00 00
	00 00		 mov	 DWORD PTR _m$[ebp], OFFSET _main_man_calc_struct

; 3480 : 
; 3481 :    m->max_iters = GetDlgItemInt(hwnd_dialog, IDC_ITERS, NULL, FALSE);

  00010	6a 00		 push	 0
  00012	6a 00		 push	 0
  00014	68 fb 03 00 00	 push	 1019			; 000003fbH
  00019	a1 00 00 00 00	 mov	 eax, DWORD PTR _hwnd_dialog
  0001e	50		 push	 eax
  0001f	ff 15 00 00 00
	00		 call	 DWORD PTR __imp__GetDlgItemInt@16
  00025	8b 4d fc	 mov	 ecx, DWORD PTR _m$[ebp]
  00028	89 81 c0 8d 00
	00		 mov	 DWORD PTR [ecx+36288], eax

; 3482 :    update_iters(0, 0); // clip

  0002e	6a 00		 push	 0
  00030	6a 00		 push	 0
  00032	e8 00 00 00 00	 call	 _update_iters
  00037	83 c4 08	 add	 esp, 8

; 3483 : 
; 3484 :    // Doing these only in the dialog box handler mean they don't take effect until
; 3485 :    // user actually clicks them, whereas getting them here returns the realtime values.
; 3486 : 
; 3487 :    // It's useful to be able to set these on the fly
; 3488 :    m->alg = get_alg();

  0003a	e8 00 00 00 00	 call	 _get_alg
  0003f	8b 4d fc	 mov	 ecx, DWORD PTR _m$[ebp]
  00042	89 81 c8 8d 00
	00		 mov	 DWORD PTR [ecx+36296], eax

; 3489 :    m->precision = get_precision();

  00048	e8 00 00 00 00	 call	 _get_precision
  0004d	8b 4d fc	 mov	 ecx, DWORD PTR _m$[ebp]
  00050	89 81 d0 8d 00
	00		 mov	 DWORD PTR [ecx+36304], eax

; 3490 :    m->rendering_alg = get_rendering_alg();

  00056	e8 00 00 00 00	 call	 _get_rendering_alg
  0005b	8b 4d fc	 mov	 ecx, DWORD PTR _m$[ebp]
  0005e	89 81 04 8e 00
	00		 mov	 DWORD PTR [ecx+36356], eax

; 3491 :    if (m->precision == PRECISION_EXTENDED) // don't allow on-the-fly change to this (unimplemented)

  00064	8b 45 fc	 mov	 eax, DWORD PTR _m$[ebp]
  00067	83 b8 d0 8d 00
	00 03		 cmp	 DWORD PTR [eax+36304], 3
  0006e	75 0d		 jne	 SHORT $LN2@get_dialog

; 3492 :       m->precision = PRECISION_DOUBLE;

  00070	8b 45 fc	 mov	 eax, DWORD PTR _m$[ebp]
  00073	c7 80 d0 8d 00
	00 02 00 00 00	 mov	 DWORD PTR [eax+36304], 2
$LN2@get_dialog:

; 3493 : 
; 3494 :    get_builtin_palette();

  0007d	e8 00 00 00 00	 call	 _get_builtin_palette

; 3495 : 
; 3496 :    // This not so much
; 3497 :    // get_num_threads();
; 3498 : }

  00082	5f		 pop	 edi
  00083	5e		 pop	 esi
  00084	5b		 pop	 ebx
  00085	8b e5		 mov	 esp, ebp
  00087	5d		 pop	 ebp
  00088	c3		 ret	 0
_get_dialog_fields ENDP
_TEXT	ENDS
; Function compile flags: /Odtp /ZI
; File d:\stanley\desktop\quickman_v110\source\quickman.c
;	COMDAT _set_home_image
_TEXT	SEGMENT
_m$ = -4						; size = 4
_set_home_image PROC					; COMDAT

; 3460 : {

  00000	55		 push	 ebp
  00001	8b ec		 mov	 ebp, esp
  00003	83 ec 44	 sub	 esp, 68			; 00000044H
  00006	53		 push	 ebx
  00007	56		 push	 esi
  00008	57		 push	 edi

; 3461 :    man_calc_struct *m;
; 3462 : 
; 3463 :    m = &main_man_calc_struct;

  00009	c7 45 fc 00 00
	00 00		 mov	 DWORD PTR _m$[ebp], OFFSET _main_man_calc_struct

; 3464 : 
; 3465 :    m->pan_xoffs = 0; // Reset any pan offsets

  00010	8b 45 fc	 mov	 eax, DWORD PTR _m$[ebp]
  00013	c7 80 98 8d 00
	00 00 00 00 00	 mov	 DWORD PTR [eax+36248], 0
  0001d	c7 80 9c 8d 00
	00 00 00 00 00	 mov	 DWORD PTR [eax+36252], 0

; 3466 :    m->pan_yoffs = 0;

  00027	8b 45 fc	 mov	 eax, DWORD PTR _m$[ebp]
  0002a	c7 80 a0 8d 00
	00 00 00 00 00	 mov	 DWORD PTR [eax+36256], 0
  00034	c7 80 a4 8d 00
	00 00 00 00 00	 mov	 DWORD PTR [eax+36260], 0

; 3467 :    m->re = HOME_RE;

  0003e	8b 45 fc	 mov	 eax, DWORD PTR _m$[ebp]
  00041	f2 0f 10 05 00
	00 00 00	 movsd	 xmm0, QWORD PTR __real@bfe6666666666666
  00049	f2 0f 11 80 a8
	8d 00 00	 movsd	 QWORD PTR [eax+36264], xmm0

; 3468 :    m->im = HOME_IM;

  00051	8b 45 fc	 mov	 eax, DWORD PTR _m$[ebp]
  00054	f2 0f 10 05 00
	00 00 00	 movsd	 xmm0, QWORD PTR __real@3f50624dd2f1a9fc
  0005c	f2 0f 11 80 b0
	8d 00 00	 movsd	 QWORD PTR [eax+36272], xmm0

; 3469 :    m->mag = HOME_MAG;

  00064	8b 45 fc	 mov	 eax, DWORD PTR _m$[ebp]
  00067	f2 0f 10 05 00
	00 00 00	 movsd	 xmm0, QWORD PTR __real@3ff599999999999a
  0006f	f2 0f 11 80 b8
	8d 00 00	 movsd	 QWORD PTR [eax+36280], xmm0

; 3470 :    m->max_iters = HOME_MAX_ITERS;   // Better to reset the max iters here. Don't want large #

  00077	8b 45 fc	 mov	 eax, DWORD PTR _m$[ebp]
  0007a	c7 80 c0 8d 00
	00 00 01 00 00	 mov	 DWORD PTR [eax+36288], 256 ; 00000100H

; 3471 :    update_iters(0, 0);              // from previous image

  00084	6a 00		 push	 0
  00086	6a 00		 push	 0
  00088	e8 00 00 00 00	 call	 _update_iters
  0008d	83 c4 08	 add	 esp, 8

; 3472 : }

  00090	5f		 pop	 edi
  00091	5e		 pop	 esi
  00092	5b		 pop	 ebx
  00093	8b e5		 mov	 esp, ebp
  00095	5d		 pop	 ebp
  00096	c3		 ret	 0
_set_home_image ENDP
_TEXT	ENDS
; Function compile flags: /Odtp /ZI
; File d:\stanley\desktop\quickman_v110\source\quickman.c
;	COMDAT _update_iters
_TEXT	SEGMENT
_m$ = -4						; size = 4
_up$ = 8						; size = 4
_down$ = 12						; size = 4
_update_iters PROC					; COMDAT

; 3441 : {

  00000	55		 push	 ebp
  00001	8b ec		 mov	 ebp, esp
  00003	83 ec 44	 sub	 esp, 68			; 00000044H
  00006	53		 push	 ebx
  00007	56		 push	 esi
  00008	57		 push	 edi

; 3442 :    man_calc_struct *m;
; 3443 : 
; 3444 :    m = &main_man_calc_struct;

  00009	c7 45 fc 00 00
	00 00		 mov	 DWORD PTR _m$[ebp], OFFSET _main_man_calc_struct

; 3445 : 
; 3446 :    if (up)

  00010	83 7d 08 00	 cmp	 DWORD PTR _up$[ebp], 0
  00014	74 14		 je	 SHORT $LN2@update_ite

; 3447 :       m->max_iters <<= 1;

  00016	8b 45 fc	 mov	 eax, DWORD PTR _m$[ebp]
  00019	8b 88 c0 8d 00
	00		 mov	 ecx, DWORD PTR [eax+36288]
  0001f	d1 e1		 shl	 ecx, 1
  00021	8b 55 fc	 mov	 edx, DWORD PTR _m$[ebp]
  00024	89 8a c0 8d 00
	00		 mov	 DWORD PTR [edx+36288], ecx
$LN2@update_ite:

; 3448 :    if (down)

  0002a	83 7d 0c 00	 cmp	 DWORD PTR _down$[ebp], 0
  0002e	74 14		 je	 SHORT $LN3@update_ite

; 3449 :       m->max_iters >>= 1;

  00030	8b 45 fc	 mov	 eax, DWORD PTR _m$[ebp]
  00033	8b 88 c0 8d 00
	00		 mov	 ecx, DWORD PTR [eax+36288]
  00039	d1 e9		 shr	 ecx, 1
  0003b	8b 55 fc	 mov	 edx, DWORD PTR _m$[ebp]
  0003e	89 8a c0 8d 00
	00		 mov	 DWORD PTR [edx+36288], ecx
$LN3@update_ite:

; 3450 :    if (m->max_iters < MIN_ITERS)

  00044	8b 45 fc	 mov	 eax, DWORD PTR _m$[ebp]
  00047	83 b8 c0 8d 00
	00 02		 cmp	 DWORD PTR [eax+36288], 2
  0004e	73 0d		 jae	 SHORT $LN4@update_ite

; 3451 :       m->max_iters = MIN_ITERS;

  00050	8b 45 fc	 mov	 eax, DWORD PTR _m$[ebp]
  00053	c7 80 c0 8d 00
	00 02 00 00 00	 mov	 DWORD PTR [eax+36288], 2
$LN4@update_ite:

; 3452 :    if (m->max_iters > MAX_ITERS)

  0005d	8b 45 fc	 mov	 eax, DWORD PTR _m$[ebp]
  00060	81 b8 c0 8d 00
	00 00 00 00 08	 cmp	 DWORD PTR [eax+36288], 134217728 ; 08000000H
  0006a	76 0d		 jbe	 SHORT $LN5@update_ite

; 3453 :       m->max_iters = MAX_ITERS;

  0006c	8b 45 fc	 mov	 eax, DWORD PTR _m$[ebp]
  0006f	c7 80 c0 8d 00
	00 00 00 00 08	 mov	 DWORD PTR [eax+36288], 134217728 ; 08000000H
$LN5@update_ite:

; 3454 : 
; 3455 :    SetDlgItemInt(hwnd_dialog, IDC_ITERS, m->max_iters, FALSE);

  00079	6a 00		 push	 0
  0007b	8b 45 fc	 mov	 eax, DWORD PTR _m$[ebp]
  0007e	8b 88 c0 8d 00
	00		 mov	 ecx, DWORD PTR [eax+36288]
  00084	51		 push	 ecx
  00085	68 fb 03 00 00	 push	 1019			; 000003fbH
  0008a	8b 15 00 00 00
	00		 mov	 edx, DWORD PTR _hwnd_dialog
  00090	52		 push	 edx
  00091	ff 15 00 00 00
	00		 call	 DWORD PTR __imp__SetDlgItemInt@16

; 3456 : }

  00097	5f		 pop	 edi
  00098	5e		 pop	 esi
  00099	5b		 pop	 ebx
  0009a	8b e5		 mov	 esp, ebp
  0009c	5d		 pop	 ebp
  0009d	c3		 ret	 0
_update_iters ENDP
_TEXT	ENDS
; Function compile flags: /Odtp /ZI
; File d:\stanley\desktop\quickman_v110\source\quickman.c
;	COMDAT _get_num_threads
_TEXT	SEGMENT
_str$ = -256						; size = 256
_get_num_threads PROC					; COMDAT

; 3431 : {

  00000	55		 push	 ebp
  00001	8b ec		 mov	 ebp, esp
  00003	81 ec 40 01 00
	00		 sub	 esp, 320		; 00000140H
  00009	53		 push	 ebx
  0000a	56		 push	 esi
  0000b	57		 push	 edi

; 3432 :    char str[256];
; 3433 : 
; 3434 :    GetDlgItemText(hwnd_dialog, IDC_THREADS, str, sizeof(str));

  0000c	68 00 01 00 00	 push	 256			; 00000100H
  00011	8d 85 00 ff ff
	ff		 lea	 eax, DWORD PTR _str$[ebp]
  00017	50		 push	 eax
  00018	68 06 04 00 00	 push	 1030			; 00000406H
  0001d	8b 0d 00 00 00
	00		 mov	 ecx, DWORD PTR _hwnd_dialog
  00023	51		 push	 ecx
  00024	ff 15 00 00 00
	00		 call	 DWORD PTR __imp__GetDlgItemTextA@16

; 3435 :    num_threads_ind = get_string_index(str, num_threads_strs, NUM_ELEM(num_threads_strs));

  0002a	6a 09		 push	 9
  0002c	68 00 00 00 00	 push	 OFFSET _num_threads_strs
  00031	8d 85 00 ff ff
	ff		 lea	 eax, DWORD PTR _str$[ebp]
  00037	50		 push	 eax
  00038	e8 00 00 00 00	 call	 _get_string_index
  0003d	83 c4 0c	 add	 esp, 12			; 0000000cH
  00040	a3 00 00 00 00	 mov	 DWORD PTR _num_threads_ind, eax

; 3436 :    num_threads = 1 << num_threads_ind;

  00045	b8 01 00 00 00	 mov	 eax, 1
  0004a	8b 0d 00 00 00
	00		 mov	 ecx, DWORD PTR _num_threads_ind
  00050	d3 e0		 shl	 eax, cl
  00052	a3 00 00 00 00	 mov	 DWORD PTR _num_threads, eax

; 3437 : }

  00057	5f		 pop	 edi
  00058	5e		 pop	 esi
  00059	5b		 pop	 ebx
  0005a	8b e5		 mov	 esp, ebp
  0005c	5d		 pop	 ebp
  0005d	c3		 ret	 0
_get_num_threads ENDP
_TEXT	ENDS
; Function compile flags: /Odtp /ZI
; File d:\stanley\desktop\quickman_v110\source\quickman.c
;	COMDAT _get_alg
_TEXT	SEGMENT
_str$ = -256						; size = 256
_get_alg PROC						; COMDAT

; 3423 : {

  00000	55		 push	 ebp
  00001	8b ec		 mov	 ebp, esp
  00003	81 ec 40 01 00
	00		 sub	 esp, 320		; 00000140H
  00009	53		 push	 ebx
  0000a	56		 push	 esi
  0000b	57		 push	 edi

; 3424 :    char str[256];
; 3425 : 
; 3426 :    GetDlgItemText(hwnd_dialog, IDC_ALGORITHM, str, sizeof(str));

  0000c	68 00 01 00 00	 push	 256			; 00000100H
  00011	8d 85 00 ff ff
	ff		 lea	 eax, DWORD PTR _str$[ebp]
  00017	50		 push	 eax
  00018	68 05 04 00 00	 push	 1029			; 00000405H
  0001d	8b 0d 00 00 00
	00		 mov	 ecx, DWORD PTR _hwnd_dialog
  00023	51		 push	 ecx
  00024	ff 15 00 00 00
	00		 call	 DWORD PTR __imp__GetDlgItemTextA@16

; 3427 :    return get_string_index(str, alg_strs, NUM_ELEM(alg_strs));

  0002a	6a 06		 push	 6
  0002c	68 00 00 00 00	 push	 OFFSET _alg_strs
  00031	8d 85 00 ff ff
	ff		 lea	 eax, DWORD PTR _str$[ebp]
  00037	50		 push	 eax
  00038	e8 00 00 00 00	 call	 _get_string_index
  0003d	83 c4 0c	 add	 esp, 12			; 0000000cH

; 3428 : }

  00040	5f		 pop	 edi
  00041	5e		 pop	 esi
  00042	5b		 pop	 ebx
  00043	8b e5		 mov	 esp, ebp
  00045	5d		 pop	 ebp
  00046	c3		 ret	 0
_get_alg ENDP
_TEXT	ENDS
; Function compile flags: /Odtp /ZI
; File d:\stanley\desktop\quickman_v110\source\quickman.c
;	COMDAT _get_precision
_TEXT	SEGMENT
_str$ = -256						; size = 256
_get_precision PROC					; COMDAT

; 3415 : {

  00000	55		 push	 ebp
  00001	8b ec		 mov	 ebp, esp
  00003	81 ec 40 01 00
	00		 sub	 esp, 320		; 00000140H
  00009	53		 push	 ebx
  0000a	56		 push	 esi
  0000b	57		 push	 edi

; 3416 :    char str[256];
; 3417 : 
; 3418 :    GetDlgItemText(hwnd_dialog, IDC_PRECISION, str, sizeof(str));

  0000c	68 00 01 00 00	 push	 256			; 00000100H
  00011	8d 85 00 ff ff
	ff		 lea	 eax, DWORD PTR _str$[ebp]
  00017	50		 push	 eax
  00018	68 f2 03 00 00	 push	 1010			; 000003f2H
  0001d	8b 0d 00 00 00
	00		 mov	 ecx, DWORD PTR _hwnd_dialog
  00023	51		 push	 ecx
  00024	ff 15 00 00 00
	00		 call	 DWORD PTR __imp__GetDlgItemTextA@16

; 3419 :    return get_string_index(str, precision_strs, NUM_ELEM(precision_strs));

  0002a	6a 04		 push	 4
  0002c	68 00 00 00 00	 push	 OFFSET _precision_strs
  00031	8d 85 00 ff ff
	ff		 lea	 eax, DWORD PTR _str$[ebp]
  00037	50		 push	 eax
  00038	e8 00 00 00 00	 call	 _get_string_index
  0003d	83 c4 0c	 add	 esp, 12			; 0000000cH

; 3420 : }

  00040	5f		 pop	 edi
  00041	5e		 pop	 esi
  00042	5b		 pop	 ebx
  00043	8b e5		 mov	 esp, ebp
  00045	5d		 pop	 ebp
  00046	c3		 ret	 0
_get_precision ENDP
_TEXT	ENDS
; Function compile flags: /Odtp /ZI
; File d:\stanley\desktop\quickman_v110\source\quickman.c
;	COMDAT _get_rendering_alg
_TEXT	SEGMENT
_str$ = -256						; size = 256
_get_rendering_alg PROC					; COMDAT

; 3407 : {

  00000	55		 push	 ebp
  00001	8b ec		 mov	 ebp, esp
  00003	81 ec 40 01 00
	00		 sub	 esp, 320		; 00000140H
  00009	53		 push	 ebx
  0000a	56		 push	 esi
  0000b	57		 push	 edi

; 3408 :    char str[256];
; 3409 : 
; 3410 :    GetDlgItemText(hwnd_dialog, IDC_RENDERING, str, sizeof(str));

  0000c	68 00 01 00 00	 push	 256			; 00000100H
  00011	8d 85 00 ff ff
	ff		 lea	 eax, DWORD PTR _str$[ebp]
  00017	50		 push	 eax
  00018	68 04 04 00 00	 push	 1028			; 00000404H
  0001d	8b 0d 00 00 00
	00		 mov	 ecx, DWORD PTR _hwnd_dialog
  00023	51		 push	 ecx
  00024	ff 15 00 00 00
	00		 call	 DWORD PTR __imp__GetDlgItemTextA@16

; 3411 :    return get_string_index(str, rendering_strs, NUM_ELEM(rendering_strs));

  0002a	6a 02		 push	 2
  0002c	68 00 00 00 00	 push	 OFFSET _rendering_strs
  00031	8d 85 00 ff ff
	ff		 lea	 eax, DWORD PTR _str$[ebp]
  00037	50		 push	 eax
  00038	e8 00 00 00 00	 call	 _get_string_index
  0003d	83 c4 0c	 add	 esp, 12			; 0000000cH

; 3412 : }

  00040	5f		 pop	 edi
  00041	5e		 pop	 esi
  00042	5b		 pop	 ebx
  00043	8b e5		 mov	 esp, ebp
  00045	5d		 pop	 ebp
  00046	c3		 ret	 0
_get_rendering_alg ENDP
_TEXT	ENDS
; Function compile flags: /Odtp /ZI
; File d:\stanley\desktop\quickman_v110\source\quickman.c
;	COMDAT _get_user_palette
_TEXT	SEGMENT
tv95 = -84						; size = 4
tv88 = -84						; size = 4
tv77 = -84						; size = 4
_m$ = -16						; size = 4
_bmp_flag$ = -12					; size = 4
_tmp$ = -8						; size = 4
_fp$ = -4						; size = 4
_get_user_palette PROC					; COMDAT

; 3379 : {

  00000	55		 push	 ebp
  00001	8b ec		 mov	 ebp, esp
  00003	83 ec 54	 sub	 esp, 84			; 00000054H
  00006	53		 push	 ebx
  00007	56		 push	 esi
  00008	57		 push	 edi

; 3380 :    FILE *fp;
; 3381 :    unsigned tmp, bmp_flag;
; 3382 :    man_calc_struct *m;
; 3383 : 
; 3384 :    m = &main_man_calc_struct;

  00009	c7 45 f0 00 00
	00 00		 mov	 DWORD PTR _m$[ebp], OFFSET _main_man_calc_struct

; 3385 : 
; 3386 :    GetDlgItemText(hwnd_dialog, IDC_PALETTE, palette_file, sizeof(palette_file));

  00010	68 00 01 00 00	 push	 256			; 00000100H
  00015	68 00 00 00 00	 push	 OFFSET _palette_file
  0001a	68 03 04 00 00	 push	 1027			; 00000403H
  0001f	a1 00 00 00 00	 mov	 eax, DWORD PTR _hwnd_dialog
  00024	50		 push	 eax
  00025	ff 15 00 00 00
	00		 call	 DWORD PTR __imp__GetDlgItemTextA@16

; 3387 : 
; 3388 :    // See whether it's a BMP or text palette file; load using corresponding function.
; 3389 :    // This is safe because files have to have 3-char extensions to make it into the dropdown list
; 3390 :    bmp_flag = !_strnicmp(palette_file + strlen(palette_file) - 3, "bmp", 3);

  0002b	6a 03		 push	 3
  0002d	68 00 00 00 00	 push	 OFFSET $SG41604
  00032	68 00 00 00 00	 push	 OFFSET _palette_file
  00037	e8 00 00 00 00	 call	 _strlen
  0003c	83 c4 04	 add	 esp, 4
  0003f	8d 80 fd ff ff
	ff		 lea	 eax, DWORD PTR _palette_file[eax-3]
  00045	50		 push	 eax
  00046	e8 00 00 00 00	 call	 __strnicmp
  0004b	83 c4 0c	 add	 esp, 12			; 0000000cH
  0004e	85 c0		 test	 eax, eax
  00050	75 09		 jne	 SHORT $LN6@get_user_p
  00052	c7 45 ac 01 00
	00 00		 mov	 DWORD PTR tv77[ebp], 1
  00059	eb 07		 jmp	 SHORT $LN7@get_user_p
$LN6@get_user_p:
  0005b	c7 45 ac 00 00
	00 00		 mov	 DWORD PTR tv77[ebp], 0
$LN7@get_user_p:
  00062	8b 4d ac	 mov	 ecx, DWORD PTR tv77[ebp]
  00065	89 4d f4	 mov	 DWORD PTR _bmp_flag$[ebp], ecx

; 3391 : 
; 3392 :    if ((fp = open_file(palette_file, "", bmp_flag)) != NULL)

  00068	8b 45 f4	 mov	 eax, DWORD PTR _bmp_flag$[ebp]
  0006b	50		 push	 eax
  0006c	68 00 00 00 00	 push	 OFFSET $SG41606
  00071	68 00 00 00 00	 push	 OFFSET _palette_file
  00076	e8 00 00 00 00	 call	 _open_file
  0007b	83 c4 0c	 add	 esp, 12			; 0000000cH
  0007e	89 45 fc	 mov	 DWORD PTR _fp$[ebp], eax
  00081	83 7d fc 00	 cmp	 DWORD PTR _fp$[ebp], 0
  00085	74 75		 je	 SHORT $LN1@get_user_p

; 3393 :    {
; 3394 :       tmp = bmp_flag ? load_palette_from_bmp(fp) : load_palette(fp);

